(lp0
cnumpy.core.multiarray
scalar
p1
(cnumpy
dtype
p2
(S'f4'
p3
I0
I1
tp4
Rp5
(I3
S'<'
p6
NNNI-1
I-1
I0
tp7
bS'\xa5\xf7\x19?'
p8
tp9
Rp10
ag1
(g5
S'\xbf\xf1\x1d?'
p11
tp12
Rp13
ag1
(g5
S'\xb8\x8a ?'
p14
tp15
Rp16
ag1
(g5
S'\xb4\x86!?'
p17
tp18
Rp19
ag1
(g5
S'\xd3U#?'
p20
tp21
Rp22
ag1
(g5
S'\xf73#?'
p23
tp24
Rp25
ag1
(g5
S'\x16U$?'
p26
tp27
Rp28
ag1
(g5
S'F\x8c%?'
p29
tp30
Rp31
ag1
(g5
S'\x03\xdc%?'
p32
tp33
Rp34
ag1
(g5
S'h\x12&?'
p35
tp36
Rp37
ag1
(g5
S'\x8e}&?'
p38
tp39
Rp40
ag1
(g5
S'z\xcf&?'
p41
tp42
Rp43
ag1
(g5
S'\xc2q&?'
p44
tp45
Rp46
ag1
(g5
S"&C'?"
p47
tp48
Rp49
ag1
(g5
S'\xd56(?'
p50
tp51
Rp52
ag1
(g5
S"\xd2\xd6'?"
p53
tp54
Rp55
ag1
(g5
S'\x81C(?'
p56
tp57
Rp58
ag1
(g5
S'a*(?'
p59
tp60
Rp61
ag1
(g5
S'\xc8s(?'
p62
tp63
Rp64
ag1
(g5
S'\xc7\xc7(?'
p65
tp66
Rp67
ag1
(g5
S'i\x10)?'
p68
tp69
Rp70
ag1
(g5
S'\xab\xcf)?'
p71
tp72
Rp73
ag1
(g5
S'd\x92)?'
p74
tp75
Rp76
ag1
(g5
S'\x992)?'
p77
tp78
Rp79
ag1
(g5
S'U\xf6)?'
p80
tp81
Rp82
ag1
(g5
S'\x8d]*?'
p83
tp84
Rp85
ag1
(g5
S'e.+?'
p86
tp87
Rp88
ag1
(g5
S'\xdb\xa2,?'
p89
tp90
Rp91
ag1
(g5
S'\xd1\x05-?'
p92
tp93
Rp94
ag1
(g5
S'sc.?'
p95
tp96
Rp97
ag1
(g5
S'\x8b?/?'
p98
tp99
Rp100
ag1
(g5
S'Zl0?'
p101
tp102
Rp103
ag1
(g5
S'\xa3+2?'
p104
tp105
Rp106
ag1
(g5
S'\x15t3?'
p107
tp108
Rp109
ag1
(g5
S'@ 5?'
p110
tp111
Rp112
ag1
(g5
S'\xfeC6?'
p113
tp114
Rp115
ag1
(g5
S'J\x887?'
p116
tp117
Rp118
ag1
(g5
S'\xe4\xcd8?'
p119
tp120
Rp121
ag1
(g5
S'{s9?'
p122
tp123
Rp124
ag1
(g5
S' \x1c:?'
p125
tp126
Rp127
ag1
(g5
S'\xd5\x80:?'
p128
tp129
Rp130
ag1
(g5
S'\x8f\xaa:?'
p131
tp132
Rp133
ag1
(g5
S'5F;?'
p134
tp135
Rp136
ag1
(g5
S'\xc9q;?'
p137
tp138
Rp139
ag1
(g5
S'\x8a\x86;?'
p140
tp141
Rp142
ag1
(g5
S'\x99\x89;?'
p143
tp144
Rp145
ag1
(g5
S'\x1e\x06<?'
p146
tp147
Rp148
ag1
(g5
S'\xe4,<?'
p149
tp150
Rp151
ag1
(g5
S'\x94\x0b<?'
p152
tp153
Rp154
ag1
(g5
S'\xbf\x82<?'
p155
tp156
Rp157
ag1
(g5
S'9\xc1<?'
p158
tp159
Rp160
ag1
(g5
S'\x1d\xc1<?'
p161
tp162
Rp163
ag1
(g5
S'Q\xef<?'
p164
tp165
Rp166
ag1
(g5
S'\xd9\xd6<?'
p167
tp168
Rp169
ag1
(g5
S'\xbc\xf0<?'
p170
tp171
Rp172
ag1
(g5
S'\xfa\xf5<?'
p173
tp174
Rp175
ag1
(g5
S'#\xf3<?'
p176
tp177
Rp178
ag1
(g5
S'I>=?'
p179
tp180
Rp181
ag1
(g5
S'\xe4{=?'
p182
tp183
Rp184
ag1
(g5
S'\x0f\x7f=?'
p185
tp186
Rp187
ag1
(g5
S'v\x81=?'
p188
tp189
Rp190
ag1
(g5
S'\xb3\xcd=?'
p191
tp192
Rp193
ag1
(g5
S'\xa7\xc3=?'
p194
tp195
Rp196
ag1
(g5
S'\xcc\xee=?'
p197
tp198
Rp199
ag1
(g5
S'{\x07>?'
p200
tp201
Rp202
ag1
(g5
S'\x0e\xd3=?'
p203
tp204
Rp205
ag1
(g5
S'\xe1\xf6=?'
p206
tp207
Rp208
ag1
(g5
S'\x03C>?'
p209
tp210
Rp211
ag1
(g5
S'\x88\x11>?'
p212
tp213
Rp214
ag1
(g5
S'\xfaD>?'
p215
tp216
Rp217
ag1
(g5
S'\xa02>?'
p218
tp219
Rp220
ag1
(g5
S'\xa4\x85>?'
p221
tp222
Rp223
ag1
(g5
S'9w>?'
p224
tp225
Rp226
ag1
(g5
S'\xfb\x9e>?'
p227
tp228
Rp229
ag1
(g5
S'uv>?'
p230
tp231
Rp232
ag1
(g5
S'\xcf\xb5>?'
p233
tp234
Rp235
ag1
(g5
S'\xcb\xa9>?'
p236
tp237
Rp238
ag1
(g5
S'\xf6\xd9>?'
p239
tp240
Rp241
ag1
(g5
S'b\xce>?'
p242
tp243
Rp244
ag1
(g5
S'\n\xcf>?'
p245
tp246
Rp247
ag1
(g5
S']\xe9>?'
p248
tp249
Rp250
ag1
(g5
S'x\xc9>?'
p251
tp252
Rp253
ag1
(g5
S'=\x17??'
p254
tp255
Rp256
ag1
(g5
S'\x81.??'
p257
tp258
Rp259
ag1
(g5
S',;??'
p260
tp261
Rp262
ag1
(g5
S'\xa33??'
p263
tp264
Rp265
ag1
(g5
S'\xa7???'
p266
tp267
Rp268
ag1
(g5
S'nL??'
p269
tp270
Rp271
ag1
(g5
S'\xb8H??'
p272
tp273
Rp274
ag1
(g5
S'\xe6\xfd>?'
p275
tp276
Rp277
ag1
(g5
S'\x8e\x92??'
p278
tp279
Rp280
ag1
(g5
S'Zd??'
p281
tp282
Rp283
ag1
(g5
S'U8??'
p284
tp285
Rp286
ag1
(g5
S'\xc3\xa6??'
p287
tp288
Rp289
ag1
(g5
S'\xeac??'
p290
tp291
Rp292
ag1
(g5
S'O\xa7??'
p293
tp294
Rp295
ag1
(g5
S'\x17\x9a??'
p296
tp297
Rp298
ag1
(g5
S'4\xc7??'
p299
tp300
Rp301
ag1
(g5
S'T_??'
p302
tp303
Rp304
ag1
(g5
S'`\xa3??'
p305
tp306
Rp307
ag1
(g5
S'\xa1\xce??'
p308
tp309
Rp310
ag1
(g5
S'\xe3\xb2??'
p311
tp312
Rp313
ag1
(g5
S's\xb2??'
p314
tp315
Rp316
ag1
(g5
S'\x03\xec??'
p317
tp318
Rp319
ag1
(g5
S'\x02\x06@?'
p320
tp321
Rp322
ag1
(g5
S'\x9a\x10@?'
p323
tp324
Rp325
ag1
(g5
S'\xbc\xe8??'
p326
tp327
Rp328
ag1
(g5
S'\xcb\xf8??'
p329
tp330
Rp331
ag1
(g5
S'`\x17@?'
p332
tp333
Rp334
ag1
(g5
S'\xffF@?'
p335
tp336
Rp337
ag1
(g5
S'\x8bT@?'
p338
tp339
Rp340
ag1
(g5
S'DQ@?'
p341
tp342
Rp343
ag1
(g5
S'\xbfH@?'
p344
tp345
Rp346
ag1
(g5
S'\xa0\\@?'
p347
tp348
Rp349
ag1
(g5
S'9Z@?'
p350
tp351
Rp352
ag1
(g5
S'r\xa7@?'
p353
tp354
Rp355
ag1
(g5
S'\x90s@?'
p356
tp357
Rp358
ag1
(g5
S'\x11\t@?'
p359
tp360
Rp361
ag1
(g5
S'\x10]@?'
p362
tp363
Rp364
ag1
(g5
S'\xde\x8e@?'
p365
tp366
Rp367
ag1
(g5
S'\x80\x8a@?'
p368
tp369
Rp370
ag1
(g5
S' s@?'
p371
tp372
Rp373
ag1
(g5
S'#\x99@?'
p374
tp375
Rp376
ag1
(g5
S'\x05\x93@?'
p377
tp378
Rp379
ag1
(g5
S'\xe2m@?'
p380
tp381
Rp382
ag1
(g5
S'\xf9\xa8@?'
p383
tp384
Rp385
ag1
(g5
S'\x11\xe4@?'
p386
tp387
Rp388
ag1
(g5
S'\xdc\xcf@?'
p389
tp390
Rp391
ag1
(g5
S'\x8b\xbb@?'
p392
tp393
Rp394
ag1
(g5
S'\xda\xbc@?'
p395
tp396
Rp397
ag1
(g5
S'\\\xb9@?'
p398
tp399
Rp400
ag1
(g5
S'g\xdd@?'
p401
tp402
Rp403
ag1
(g5
S'.\x04A?'
p404
tp405
Rp406
ag1
(g5
S'\xa9\xfb@?'
p407
tp408
Rp409
ag1
(g5
S'\xa4\tA?'
p410
tp411
Rp412
ag1
(g5
S't\xe7@?'
p413
tp414
Rp415
ag1
(g5
S'\xd2\x18A?'
p416
tp417
Rp418
ag1
(g5
S'2\x03A?'
p419
tp420
Rp421
ag1
(g5
S'\xb6\xeb@?'
p422
tp423
Rp424
ag1
(g5
S'\x147A?'
p425
tp426
Rp427
ag1
(g5
S's!A?'
p428
tp429
Rp430
ag1
(g5
S'\\\xac@?'
p431
tp432
Rp433
ag1
(g5
S'g\xea@?'
p434
tp435
Rp436
ag1
(g5
S'K\x17A?'
p437
tp438
Rp439
ag1
(g5
S'\x0b\x0cA?'
p440
tp441
Rp442
ag1
(g5
S'HeA?'
p443
tp444
Rp445
ag1
(g5
S'\xee_A?'
p446
tp447
Rp448
ag1
(g5
S'?:A?'
p449
tp450
Rp451
ag1
(g5
S'gQA?'
p452
tp453
Rp454
ag1
(g5
S'\xa4\x9dA?'
p455
tp456
Rp457
ag1
(g5
S'\xb1mA?'
p458
tp459
Rp460
ag1
(g5
S'\xd4\x85A?'
p461
tp462
Rp463
ag1
(g5
S'\x9c\x9fA?'
p464
tp465
Rp466
ag1
(g5
S'\x0c\xcdA?'
p467
tp468
Rp469
ag1
(g5
S'\xa5\x83A?'
p470
tp471
Rp472
ag1
(g5
S'\xb1\x9aA?'
p473
tp474
Rp475
ag1
(g5
S'L\x9eA?'
p476
tp477
Rp478
ag1
(g5
S'\xc9\xc8A?'
p479
tp480
Rp481
ag1
(g5
S'\x19\x90A?'
p482
tp483
Rp484
ag1
(g5
S'\x18\xaaA?'
p485
tp486
Rp487
ag1
(g5
S'\xf1\xa5A?'
p488
tp489
Rp490
ag1
(g5
S'`\xedA?'
p491
tp492
Rp493
ag1
(g5
S',\x9fA?'
p494
tp495
Rp496
ag1
(g5
S'\xfb\xf0A?'
p497
tp498
Rp499
ag1
(g5
S'\xc7\x95A?'
p500
tp501
Rp502
ag1
(g5
S'@\xfbA?'
p503
tp504
Rp505
ag1
(g5
S'_\x07B?'
p506
tp507
Rp508
ag1
(g5
S'\xf6\xfeA?'
p509
tp510
Rp511
ag1
(g5
S'V\xbcA?'
p512
tp513
Rp514
ag1
(g5
S'\xeb\x07B?'
p515
tp516
Rp517
ag1
(g5
S'!\xd5A?'
p518
tp519
Rp520
ag1
(g5
S'\xda\xd1A?'
p521
tp522
Rp523
ag1
(g5
S'crA?'
p524
tp525
Rp526
ag1
(g5
S'\xd8\xd8A?'
p527
tp528
Rp529
ag1
(g5
S'\xb0\xeeA?'
p530
tp531
Rp532
ag1
(g5
S'];B?'
p533
tp534
Rp535
ag1
(g5
S'\xfb7B?'
p536
tp537
Rp538
ag1
(g5
S'\xa4\x11B?'
p539
tp540
Rp541
ag1
(g5
S'Y\x0fB?'
p542
tp543
Rp544
ag1
(g5
S'X\x1cB?'
p545
tp546
Rp547
ag1
(g5
S'\xe8\x1bB?'
p548
tp549
Rp550
ag1
(g5
S'\x14\xcbA?'
p551
tp552
Rp553
ag1
(g5
S'\xf8>B?'
p554
tp555
Rp556
ag1
(g5
S'9=B?'
p557
tp558
Rp559
ag1
(g5
S'\xb7 B?'
p560
tp561
Rp562
ag1
(g5
S'\xda]A?'
p563
tp564
Rp565
ag1
(g5
S'KYB?'
p566
tp567
Rp568
ag1
(g5
S'^!B?'
p569
tp570
Rp571
ag1
(g5
S'\x103B?'
p572
tp573
Rp574
ag1
(g5
S'\x0caB?'
p575
tp576
Rp577
ag1
(g5
S'a\x8eB?'
p578
tp579
Rp580
ag1
(g5
S'v\x89B?'
p581
tp582
Rp583
ag1
(g5
S'\r\xaeB?'
p584
tp585
Rp586
ag1
(g5
S'x\x9cB?'
p587
tp588
Rp589
ag1
(g5
S'\xb7\x87B?'
p590
tp591
Rp592
ag1
(g5
S'\x85_B?'
p593
tp594
Rp595
ag1
(g5
S'\x12\xa0B?'
p596
tp597
Rp598
ag1
(g5
S'\x01wB?'
p599
tp600
Rp601
ag1
(g5
S'\x0f\x94B?'
p602
tp603
Rp604
ag1
(g5
S'e\x8dB?'
p605
tp606
Rp607
ag1
(g5
S'@\x9cB?'
p608
tp609
Rp610
ag1
(g5
S'\x8d\xdeB?'
p611
tp612
Rp613
ag1
(g5
S'b\x94B?'
p614
tp615
Rp616
ag1
(g5
S'\xa0\xd3B?'
p617
tp618
Rp619
ag1
(g5
S'\xe6\xb6B?'
p620
tp621
Rp622
ag1
(g5
S'\x92\x96B?'
p623
tp624
Rp625
ag1
(g5
S'}\xaeB?'
p626
tp627
Rp628
ag1
(g5
S':\xb7B?'
p629
tp630
Rp631
ag1
(g5
S'\x8c\xf8B?'
p632
tp633
Rp634
ag1
(g5
S'\xf4\xd3B?'
p635
tp636
Rp637
ag1
(g5
S'\xc6}B?'
p638
tp639
Rp640
ag1
(g5
S'x\xc9B?'
p641
tp642
Rp643
ag1
(g5
S'\xbf\xccB?'
p644
tp645
Rp646
ag1
(g5
S'\xd7\x1fB?'
p647
tp648
Rp649
ag1
(g5
S'\xb6\x08C?'
p650
tp651
Rp652
ag1
(g5
S'\xcb\xe3B?'
p653
tp654
Rp655
ag1
(g5
S'\xea\tC?'
p656
tp657
Rp658
ag1
(g5
S'\x87\x92B?'
p659
tp660
Rp661
ag1
(g5
S'E\xf5B?'
p662
tp663
Rp664
ag1
(g5
S'\x9e\x14C?'
p665
tp666
Rp667
ag1
(g5
S'\xb8\xe1B?'
p668
tp669
Rp670
ag1
(g5
S'\xb9\xc7B?'
p671
tp672
Rp673
ag1
(g5
S'9\x0bC?'
p674
tp675
Rp676
ag1
(g5
S'J\xe7B?'
p677
tp678
Rp679
ag1
(g5
S'p%C?'
p680
tp681
Rp682
ag1
(g5
S'\x8f>C?'
p683
tp684
Rp685
ag1
(g5
S'\xda\xe6B?'
p686
tp687
Rp688
ag1
(g5
S'\x1fKC?'
p689
tp690
Rp691
ag1
(g5
S'\\=C?'
p692
tp693
Rp694
ag1
(g5
S'\xb7(C?'
p695
tp696
Rp697
ag1
(g5
S'\xcc\x03C?'
p698
tp699
Rp700
ag1
(g5
S'\xebVC?'
p701
tp702
Rp703
ag1
(g5
S'$0C?'
p704
tp705
Rp706
ag1
(g5
S'\x0c<C?'
p707
tp708
Rp709
ag1
(g5
S'\xae\xfdB?'
p710
tp711
Rp712
ag1
(g5
S'rXC?'
p713
tp714
Rp715
ag1
(g5
S'\xb9hC?'
p716
tp717
Rp718
ag1
(g5
S'wWC?'
p719
tp720
Rp721
ag1
(g5
S'\xd3UC?'
p722
tp723
Rp724
ag1
(g5
S'6\x86C?'
p725
tp726
Rp727
ag1
(g5
S'(<C?'
p728
tp729
Rp730
ag1
(g5
S'\x07JC?'
p731
tp732
Rp733
ag1
(g5
S'\xc9QC?'
p734
tp735
Rp736
ag1
(g5
S"/'C?"
p737
tp738
Rp739
ag1
(g5
S'\xb7UC?'
p740
tp741
Rp742
ag1
(g5
S'\xd2|C?'
p743
tp744
Rp745
ag1
(g5
S'\xcecC?'
p746
tp747
Rp748
ag1
(g5
S'|vC?'
p749
tp750
Rp751
ag1
(g5
S'(iC?'
p752
tp753
Rp754
ag1
(g5
S'\xe3KC?'
p755
tp756
Rp757
ag1
(g5
S'#WC?'
p758
tp759
Rp760
ag1
(g5
S'3mC?'
p761
tp762
Rp763
ag1
(g5
S'JNC?'
p764
tp765
Rp766
ag1
(g5
S'\xfd8C?'
p767
tp768
Rp769
ag1
(g5
S'\xd6{C?'
p770
tp771
Rp772
ag1
(g5
S'#\x84C?'
p773
tp774
Rp775
ag1
(g5
S'\xd3\x8fC?'
p776
tp777
Rp778
ag1
(g5
S'\xfe\xccC?'
p779
tp780
Rp781
ag1
(g5
S'\x14\x8eC?'
p782
tp783
Rp784
ag1
(g5
S'~|C?'
p785
tp786
Rp787
ag1
(g5
S'\xc9~C?'
p788
tp789
Rp790
ag1
(g5
S'\x9f\x8eC?'
p791
tp792
Rp793
ag1
(g5
S'tkC?'
p794
tp795
Rp796
ag1
(g5
S'\x9dhC?'
p797
tp798
Rp799
ag1
(g5
S'\xf8\x80C?'
p800
tp801
Rp802
ag1
(g5
S'\xbctC?'
p803
tp804
Rp805
ag1
(g5
S'\x11hC?'
p806
tp807
Rp808
ag1
(g5
S'\xee\x9cC?'
p809
tp810
Rp811
ag1
(g5
S'R\xc0C?'
p812
tp813
Rp814
ag1
(g5
S'XkC?'
p815
tp816
Rp817
ag1
(g5
S"'\x83C?"
p818
tp819
Rp820
ag1
(g5
S'\xdc\x8dC?'
p821
tp822
Rp823
ag1
(g5
S'=\xb8C?'
p824
tp825
Rp826
ag1
(g5
S'/\xa8C?'
p827
tp828
Rp829
ag1
(g5
S'\xe4\xc5C?'
p830
tp831
Rp832
ag1
(g5
S'b\xa9C?'
p833
tp834
Rp835
ag1
(g5
S'f{C?'
p836
tp837
Rp838
ag1
(g5
S'~\xa9C?'
p839
tp840
Rp841
ag1
(g5
S';\xb2C?'
p842
tp843
Rp844
ag1
(g5
S'\xdb\x9aC?'
p845
tp846
Rp847
ag1
(g5
S'\xaf\xb1C?'
p848
tp849
Rp850
ag1
(g5
S'_\xbdC?'
p851
tp852
Rp853
ag1
(g5
S'\x84\xbbC?'
p854
tp855
Rp856
ag1
(g5
S'\\\xdeC?'
p857
tp858
Rp859
ag1
(g5
S'\x1blC?'
p860
tp861
Rp862
ag1
(g5
S'o\xa6C?'
p863
tp864
Rp865
ag1
(g5
S'\xd1\xc3C?'
p866
tp867
Rp868
ag1
(g5
S'o\xb3C?'
p869
tp870
Rp871
ag1
(g5
S'\x9c\xdcC?'
p872
tp873
Rp874
ag1
(g5
S'(\xddC?'
p875
tp876
Rp877
ag1
(g5
S'\x0c\xddC?'
p878
tp879
Rp880
ag1
(g5
S'\xf7\xc7C?'
p881
tp882
Rp883
ag1
(g5
S'\xd0\xd0C?'
p884
tp885
Rp886
ag1
(g5
S'[\xf8C?'
p887
tp888
Rp889
ag1
(g5
S'\x8f\xdfC?'
p890
tp891
Rp892
ag1
(g5
S'\x1e\x9fC?'
p893
tp894
Rp895
ag1
(g5
S'\x94\xa4C?'
p896
tp897
Rp898
ag1
(g5
S'u\x8bC?'
p899
tp900
Rp901
ag1
(g5
S'C\xcaC?'
p902
tp903
Rp904
ag1
(g5
S'\x8c\xc6C?'
p905
tp906
Rp907
ag1
(g5
S'[\xebC?'
p908
tp909
Rp910
ag1
(g5
S'\xc1\xcdC?'
p911
tp912
Rp913
ag1
(g5
S'=\xabC?'
p914
tp915
Rp916
ag1
(g5
S'\x1d\x13D?'
p917
tp918
Rp919
ag1
(g5
S'o\x1aD?'
p920
tp921
Rp922
ag1
(g5
S'-\xfcC?'
p923
tp924
Rp925
ag1
(g5
S'M\xceC?'
p926
tp927
Rp928
ag1
(g5
S'\x9b\xbcC?'
p929
tp930
Rp931
ag1
(g5
S'\xbd\xdbC?'
p932
tp933
Rp934
ag1
(g5
S'j\xfbC?'
p935
tp936
Rp937
ag1
(g5
S'\xc3\xe0C?'
p938
tp939
Rp940
ag1
(g5
S'\x0b\xf7C?'
p941
tp942
Rp943
ag1
(g5
S'X\x0cD?'
p944
tp945
Rp946
ag1
(g5
S'\x00\x00D?'
p947
tp948
Rp949
ag1
(g5
S'\xa6\xfaC?'
p950
tp951
Rp952
ag1
(g5
S'\x86\x1bD?'
p953
tp954
Rp955
ag1
(g5
S'\xfb\xd3C?'
p956
tp957
Rp958
ag1
(g5
S'\xf7\x01D?'
p959
tp960
Rp961
ag1
(g5
S'\xd3\x03D?'
p962
tp963
Rp964
ag1
(g5
S'v\x12D?'
p965
tp966
Rp967
ag1
(g5
S'\x10#D?'
p968
tp969
Rp970
ag1
(g5
S'0\xf5C?'
p971
tp972
Rp973
ag1
(g5
S'\x0e\xf0C?'
p974
tp975
Rp976
ag1
(g5
S'\xb9\xfcC?'
p977
tp978
Rp979
ag1
(g5
S'4\x01D?'
p980
tp981
Rp982
ag1
(g5
S'\xb8\xdcC?'
p983
tp984
Rp985
ag1
(g5
S'\xc1\x14D?'
p986
tp987
Rp988
ag1
(g5
S'.)D?'
p989
tp990
Rp991
ag1
(g5
S'\x87\x0eD?'
p992
tp993
Rp994
ag1
(g5
S'\x08\x18D?'
p995
tp996
Rp997
ag1
(g5
S'\x88!D?'
p998
tp999
Rp1000
ag1
(g5
S'\n\x11D?'
p1001
tp1002
Rp1003
ag1
(g5
S'\x80\x16D?'
p1004
tp1005
Rp1006
ag1
(g5
S's&D?'
p1007
tp1008
Rp1009
ag1
(g5
S'\xadLD?'
p1010
tp1011
Rp1012
ag1
(g5
S'\xe0\xc6C?'
p1013
tp1014
Rp1015
ag1
(g5
S'b\x1dD?'
p1016
tp1017
Rp1018
ag1
(g5
S'l\x01D?'
p1019
tp1020
Rp1021
ag1
(g5
S'\x03\x19D?'
p1022
tp1023
Rp1024
ag1
(g5
S'\x16(D?'
p1025
tp1026
Rp1027
ag1
(g5
S'5\x14D?'
p1028
tp1029
Rp1030
ag1
(g5
S'\xdd\x14D?'
p1031
tp1032
Rp1033
ag1
(g5
S'\x1a\xfaC?'
p1034
tp1035
Rp1036
ag1
(g5
S'\xa5ND?'
p1037
tp1038
Rp1039
ag1
(g5
S'\xcc\xfeC?'
p1040
tp1041
Rp1042
ag1
(g5
S'\x9c#D?'
p1043
tp1044
Rp1045
ag1
(g5
S'C$D?'
p1046
tp1047
Rp1048
ag1
(g5
S'0\\D?'
p1049
tp1050
Rp1051
ag1
(g5
S'W\xecC?'
p1052
tp1053
Rp1054
ag1
(g5
S'\x82ID?'
p1055
tp1056
Rp1057
ag1
(g5
S'25D?'
p1058
tp1059
Rp1060
ag1
(g5
S'\x87\x01D?'
p1061
tp1062
Rp1063
ag1
(g5
S'N(D?'
p1064
tp1065
Rp1066
ag1
(g5
S'\x116D?'
p1067
tp1068
Rp1069
ag1
(g5
S')dD?'
p1070
tp1071
Rp1072
ag1
(g5
S'\xcfkD?'
p1073
tp1074
Rp1075
ag1
(g5
S'=\x1fD?'
p1076
tp1077
Rp1078
ag1
(g5
S'^>D?'
p1079
tp1080
Rp1081
ag1
(g5
S'_kD?'
p1082
tp1083
Rp1084
ag1
(g5
S'QAD?'
p1085
tp1086
Rp1087
ag1
(g5
S'XFD?'
p1088
tp1089
Rp1090
ag1
(g5
S',PD?'
p1091
tp1092
Rp1093
ag1
(g5
S'#%D?'
p1094
tp1095
Rp1096
ag1
(g5
S'@\xacD?'
p1097
tp1098
Rp1099
ag1
(g5
S'2bD?'
p1100
tp1101
Rp1102
ag1
(g5
S'u\x86D?'
p1103
tp1104
Rp1105
ag1
(g5
S'p-D?'
p1106
tp1107
Rp1108
ag1
(g5
S'b\x84D?'
p1109
tp1110
Rp1111
ag1
(g5
S'Y\x1fD?'
p1112
tp1113
Rp1114
ag1
(g5
S'\xe7RD?'
p1115
tp1116
Rp1117
ag1
(g5
S'\x9f<D?'
p1118
tp1119
Rp1120
ag1
(g5
S'\x0f\x97D?'
p1121
tp1122
Rp1123
ag1
(g5
S'\x88hD?'
p1124
tp1125
Rp1126
ag1
(g5
S'\xb1XD?'
p1127
tp1128
Rp1129
ag1
(g5
S':zD?'
p1130
tp1131
Rp1132
ag1
(g5
S'\x8dZD?'
p1133
tp1134
Rp1135
ag1
(g5
S'#\x8cD?'
p1136
tp1137
Rp1138
ag1
(g5
S'1oD?'
p1139
tp1140
Rp1141
ag1
(g5
S'vlD?'
p1142
tp1143
Rp1144
ag1
(g5
S'&\x85D?'
p1145
tp1146
Rp1147
ag1
(g5
S'\xadLD?'
p1148
tp1149
Rp1150
ag1
(g5
S'\xc5 D?'
p1151
tp1152
Rp1153
ag1
(g5
S'\xf6bD?'
p1154
tp1155
Rp1156
ag1
(g5
S'9\x87D?'
p1157
tp1158
Rp1159
ag1
(g5
S'sSD?'
p1160
tp1161
Rp1162
ag1
(g5
S'\x8d\x87D?'
p1163
tp1164
Rp1165
ag1
(g5
S'\xf8\x95D?'
p1166
tp1167
Rp1168
ag1
(g5
S'tsD?'
p1169
tp1170
Rp1171
ag1
(g5
S'\xf5oD?'
p1172
tp1173
Rp1174
ag1
(g5
S'\x95eD?'
p1175
tp1176
Rp1177
ag1
(g5
S')\x9eD?'
p1178
tp1179
Rp1180
ag1
(g5
S'\x16\x9cD?'
p1181
tp1182
Rp1183
ag1
(g5
S'\xcd\x92D?'
p1184
tp1185
Rp1186
ag1
(g5
S'\x11\x9dD?'
p1187
tp1188
Rp1189
ag1
(g5
S'\xa7\x81D?'
p1190
tp1191
Rp1192
ag1
(g5
S'\xcc\x9fD?'
p1193
tp1194
Rp1195
ag1
(g5
S'\x81\x9dD?'
p1196
tp1197
Rp1198
ag1
(g5
S'i\xa9D?'
p1199
tp1200
Rp1201
ag1
(g5
S'C\x98D?'
p1202
tp1203
Rp1204
ag1
(g5
S'\x14\x89D?'
p1205
tp1206
Rp1207
ag1
(g5
S'6nD?'
p1208
tp1209
Rp1210
ag1
(g5
S'\xed7D?'
p1211
tp1212
Rp1213
ag1
(g5
S'E\xcbD?'
p1214
tp1215
Rp1216
ag1
(g5
S'6\x9bD?'
p1217
tp1218
Rp1219
ag1
(g5
S'\x96xD?'
p1220
tp1221
Rp1222
ag1
(g5
S'2\x9cD?'
p1223
tp1224
Rp1225
ag1
(g5
S'/iD?'
p1226
tp1227
Rp1228
ag1
(g5
S'\xcalD?'
p1229
tp1230
Rp1231
ag1
(g5
S'\xb0rD?'
p1232
tp1233
Rp1234
ag1
(g5
S'|\x8bD?'
p1235
tp1236
Rp1237
ag1
(g5
S'\xf1pD?'
p1238
tp1239
Rp1240
ag1
(g5
S'R\x9bD?'
p1241
tp1242
Rp1243
ag1
(g5
S'\x07\xc6D?'
p1244
tp1245
Rp1246
ag1
(g5
S'\xcb\x99D?'
p1247
tp1248
Rp1249
ag1
(g5
S'\xb7\xa4D?'
p1250
tp1251
Rp1252
ag1
(g5
S'\xbc\xc3D?'
p1253
tp1254
Rp1255
ag1
(g5
S'\x1b\xaeD?'
p1256
tp1257
Rp1258
ag1
(g5
S'*\xbeD?'
p1259
tp1260
Rp1261
ag1
(g5
S'BxD?'
p1262
tp1263
Rp1264
ag1
(g5
S'\xeb^D?'
p1265
tp1266
Rp1267
ag1
(g5
S'\xd8\x89D?'
p1268
tp1269
Rp1270
ag1
(g5
S'\x13iD?'
p1271
tp1272
Rp1273
ag1
(g5
S't\xadD?'
p1274
tp1275
Rp1276
ag1
(g5
S'\xe1\xb4D?'
p1277
tp1278
Rp1279
ag1
(g5
S'q\x87D?'
p1280
tp1281
Rp1282
ag1
(g5
S'\xf7\xafD?'
p1283
tp1284
Rp1285
ag1
(g5
S'\x95\x9fD?'
p1286
tp1287
Rp1288
ag1
(g5
S'\xf0\xc4D?'
p1289
tp1290
Rp1291
ag1
(g5
S'}\x9eD?'
p1292
tp1293
Rp1294
ag1
(g5
S'o\xbbD?'
p1295
tp1296
Rp1297
ag1
(g5
S'\xb8\x8aD?'
p1298
tp1299
Rp1300
ag1
(g5
S'\xd8\xc3D?'
p1301
tp1302
Rp1303
ag1
(g5
S'\x19\xb5D?'
p1304
tp1305
Rp1306
ag1
(g5
S'\xd1\x91D?'
p1307
tp1308
Rp1309
ag1
(g5
S'\x7f\xa4D?'
p1310
tp1311
Rp1312
ag1
(g5
S'\x1d\xb4D?'
p1313
tp1314
Rp1315
ag1
(g5
S'\xec\xabD?'
p1316
tp1317
Rp1318
ag1
(g5
S'q\xb4D?'
p1319
tp1320
Rp1321
ag1
(g5
S'\xda\x03E?'
p1322
tp1323
Rp1324
ag1
(g5
S'\xd7\xddD?'
p1325
tp1326
Rp1327
ag1
(g5
S'6\xd5D?'
p1328
tp1329
Rp1330
ag1
(g5
S'\x05\x86D?'
p1331
tp1332
Rp1333
ag1
(g5
S'\x9f\xa3D?'
p1334
tp1335
Rp1336
ag1
(g5
S'Q\xb5D?'
p1337
tp1338
Rp1339
ag1
(g5
S'\xd4\xc4D?'
p1340
tp1341
Rp1342
ag1
(g5
S'A\x92D?'
p1343
tp1344
Rp1345
ag1
(g5
S'\xbd\xe3D?'
p1346
tp1347
Rp1348
ag1
(g5
S'\xf2\xbdD?'
p1349
tp1350
Rp1351
ag1
(g5
S'\r\x9eD?'
p1352
tp1353
Rp1354
ag1
(g5
S'_\x98D?'
p1355
tp1356
Rp1357
ag1
(g5
S'<\xe7D?'
p1358
tp1359
Rp1360
ag1
(g5
S'L\xd0D?'
p1361
tp1362
Rp1363
ag1
(g5
S'U\xc1D?'
p1364
tp1365
Rp1366
ag1
(g5
S'\x19\xb5D?'
p1367
tp1368
Rp1369
ag1
(g5
S'\xee\xbeD?'
p1370
tp1371
Rp1372
ag1
(g5
S';\xc7D?'
p1373
tp1374
Rp1375
ag1
(g5
S'\x02\xe1D?'
p1376
tp1377
Rp1378
ag1
(g5
S'\xf0\xe4D?'
p1379
tp1380
Rp1381
ag1
(g5
S'a\xd8D?'
p1382
tp1383
Rp1384
ag1
(g5
S'\xfd\xe1D?'
p1385
tp1386
Rp1387
ag1
(g5
S'\xe9\xccD?'
p1388
tp1389
Rp1390
ag1
(g5
S'e\xaaD?'
p1391
tp1392
Rp1393
ag1
(g5
S'\x07\x99D?'
p1394
tp1395
Rp1396
ag1
(g5
S']\xccD?'
p1397
tp1398
Rp1399
ag1
(g5
S'\xc2\x02E?'
p1400
tp1401
Rp1402
ag1
(g5
S'g\xeaD?'
p1403
tp1404
Rp1405
ag1
(g5
S'\xee\xbeD?'
p1406
tp1407
Rp1408
ag1
(g5
S'\xf9\xb5D?'
p1409
tp1410
Rp1411
ag1
(g5
S'\x0e\xf8D?'
p1412
tp1413
Rp1414
ag1
(g5
S'C\xffD?'
p1415
tp1416
Rp1417
ag1
(g5
S'\xdb\xe9D?'
p1418
tp1419
Rp1420
ag1
(g5
S'\x0fwD?'
p1421
tp1422
Rp1423
ag1
(g5
S'\xce\xecD?'
p1424
tp1425
Rp1426
ag1
(g5
S'\xf6\xbcD?'
p1427
tp1428
Rp1429
ag1
(g5
S'z\xecD?'
p1430
tp1431
Rp1432
ag1
(g5
S'\xd7\xddD?'
p1433
tp1434
Rp1435
ag1
(g5
S'\xf9\xefD?'
p1436
tp1437
Rp1438
ag1
(g5
S'B\xecD?'
p1439
tp1440
Rp1441
ag1
(g5
S'\x92\xd3D?'
p1442
tp1443
Rp1444
ag1
(g5
S'D\xf2D?'
p1445
tp1446
Rp1447
ag1
(g5
S'\xcd\x06E?'
p1448
tp1449
Rp1450
ag1
(g5
S'p\x15E?'
p1451
tp1452
Rp1453
ag1
(g5
S'\xaa\xd4D?'
p1454
tp1455
Rp1456
ag1
(g5
S'l\xa2D?'
p1457
tp1458
Rp1459
ag1
(g5
S'\x18\xfcD?'
p1460
tp1461
Rp1462
ag1
(g5
S'\xae\xe0D?'
p1463
tp1464
Rp1465
ag1
(g5
S'\xf2$E?'
p1466
tp1467
Rp1468
ag1
(g5
S'\xe8ME?'
p1469
tp1470
Rp1471
ag1
(g5
S'O\xe9D?'
p1472
tp1473
Rp1474
ag1
(g5
S'\x93\x00E?'
p1475
tp1476
Rp1477
ag1
(g5
S'\xee\xbeD?'
p1478
tp1479
Rp1480
ag1
(g5
S'\x90\x07E?'
p1481
tp1482
Rp1483
ag1
(g5
S'\xc0)E?'
p1484
tp1485
Rp1486
ag1
(g5
S'%\xccD?'
p1487
tp1488
Rp1489
ag1
(g5
S'\x121E?'
p1490
tp1491
Rp1492
ag1
(g5
S'\xb3\xffD?'
p1493
tp1494
Rp1495
ag1
(g5
S'\xb0\x13E?'
p1496
tp1497
Rp1498
ag1
(g5
S'6<E?'
p1499
tp1500
Rp1501
ag1
(g5
S'\x05\x07E?'
p1502
tp1503
Rp1504
ag1
(g5
S'\xad\xfaD?'
p1505
tp1506
Rp1507
ag1
(g5
S'c8E?'
p1508
tp1509
Rp1510
ag1
(g5
S'\xa0\xfdD?'
p1511
tp1512
Rp1513
ag1
(g5
S'Q\x1cE?'
p1514
tp1515
Rp1516
ag1
(g5
S'Y\xfaD?'
p1517
tp1518
Rp1519
ag1
(g5
S'\xbe\x03E?'
p1520
tp1521
Rp1522
ag1
(g5
S'<\x14E?'
p1523
tp1524
Rp1525
ag1
(g5
S'\xfa\xd5D?'
p1526
tp1527
Rp1528
ag1
(g5
S'\x82kE?'
p1529
tp1530
Rp1531
ag1
(g5
S'\xe7-E?'
p1532
tp1533
Rp1534
ag1
(g5
S'y@E?'
p1535
tp1536
Rp1537
ag1
(g5
S'9(E?'
p1538
tp1539
Rp1540
ag1
(g5
S'\x1b"E?'
p1541
tp1542
Rp1543
ag1
(g5
S'\xc5\x1bE?'
p1544
tp1545
Rp1546
ag1
(g5
S'/\x17E?'
p1547
tp1548
Rp1549
ag1
(g5
S'\x9f\x17E?'
p1550
tp1551
Rp1552
ag1
(g5
S'\xc3"E?'
p1553
tp1554
Rp1555
ag1
(g5
S'\xa1\x10E?'
p1556
tp1557
Rp1558
ag1
(g5
S'3#E?'
p1559
tp1560
Rp1561
ag1
(g5
S'\x02;E?'
p1562
tp1563
Rp1564
ag1
(g5
S'PCE?'
p1565
tp1566
Rp1567
ag1
(g5
S')\x05E?'
p1568
tp1569
Rp1570
ag1
(g5
S'07E?'
p1571
tp1572
Rp1573
ag1
(g5
S'\x979E?'
p1574
tp1575
Rp1576
ag1
(g5
S'\xb0\x13E?'
p1577
tp1578
Rp1579
ag1
(g5
S'\xf0\x1eE?'
p1580
tp1581
Rp1582
ag1
(g5
S'5\x1cE?'
p1583
tp1584
Rp1585
ag1
(g5
S'\xa8BE?'
p1586
tp1587
Rp1588
ag1
(g5
S'{\xffD?'
p1589
tp1590
Rp1591
ag1
(g5
S'\x1f.E?'
p1592
tp1593
Rp1594
ag1
(g5
S'h*E?'
p1595
tp1596
Rp1597
ag1
(g5
S'_FE?'
p1598
tp1599
Rp1600
ag1
(g5
S'\xfb\x15E?'
p1601
tp1602
Rp1603
ag1
(g5
S'\xf6\x03E?'
p1604
tp1605
Rp1606
ag1
(g5
S'@ E?'
p1607
tp1608
Rp1609
ag1
(g5
S'\xf60E?'
p1610
tp1611
Rp1612
ag1
(g5
S'\x054E?'
p1613
tp1614
Rp1615
ag1
(g5
S'\xf21E?'
p1616
tp1617
Rp1618
ag1
(g5
S'\r\x05E?'
p1619
tp1620
Rp1621
ag1
(g5
S'\xaa\x01E?'
p1622
tp1623
Rp1624
ag1
(g5
S'\xfd(E?'
p1625
tp1626
Rp1627
ag1
(g5
S'\xb7EE?'
p1628
tp1629
Rp1630
ag1
(g5
S'\x1aIE?'
p1631
tp1632
Rp1633
ag1
(g5
S'P6E?'
p1634
tp1635
Rp1636
ag1
(g5
S'\xa6<E?'
p1637
tp1638
Rp1639
ag1
(g5
S'\xa3PE?'
p1640
tp1641
Rp1642
ag1
(g5
S'\xe9`E?'
p1643
tp1644
Rp1645
ag1
(g5
S'\xcb-E?'
p1646
tp1647
Rp1648
ag1
(g5
S'a\x12E?'
p1649
tp1650
Rp1651
ag1
(g5
S'\xff[E?'
p1652
tp1653
Rp1654
ag1
(g5
S'\x90NE?'
p1655
tp1656
Rp1657
ag1
(g5
S'\x121E?'
p1658
tp1659
Rp1660
ag1
(g5
S'\x8f.E?'
p1661
tp1662
Rp1663
ag1
(g5
S'\xbdJE?'
p1664
tp1665
Rp1666
ag1
(g5
S'g\nE?'
p1667
tp1668
Rp1669
ag1
(g5
S'\xcd3E?'
p1670
tp1671
Rp1672
ag1
(g5
S'n<E?'
p1673
tp1674
Rp1675
ag1
(g5
S':;E?'
p1676
tp1677
Rp1678
ag1
(g5
S'\xd1?E?'
p1679
tp1680
Rp1681
ag1
(g5
S'a2E?'
p1682
tp1683
Rp1684
ag1
(g5
S'\x90AE?'
p1685
tp1686
Rp1687
ag1
(g5
S'\x80+E?'
p1688
tp1689
Rp1690
ag1
(g5
S'\xa3CE?'
p1691
tp1692
Rp1693
ag1
(g5
S'\xd7DE?'
p1694
tp1695
Rp1696
ag1
(g5
S'\x0fEE?'
p1697
tp1698
Rp1699
ag1
(g5
S'\xfdUE?'
p1700
tp1701
Rp1702
ag1
(g5
S'\xee_E?'
p1703
tp1704
Rp1705
ag1
(g5
S';hE?'
p1706
tp1707
Rp1708
ag1
(g5
S'tNE?'
p1709
tp1710
Rp1711
ag1
(g5
S'\x1a<E?'
p1712
tp1713
Rp1714
ag1
(g5
S'\xed\x05E?'
p1715
tp1716
Rp1717
ag1
(g5
S'poE?'
p1718
tp1719
Rp1720
ag1
(g5
S'&`E?'
p1721
tp1722
Rp1723
ag1
(g5
S'\x16=E?'
p1724
tp1725
Rp1726
ag1
(g5
S'\xf2$E?'
p1727
tp1728
Rp1729
ag1
(g5
S'\x9cXE?'
p1730
tp1731
Rp1732
ag1
(g5
S'B\x19E?'
p1733
tp1734
Rp1735
ag1
(g5
S'\xd7\x17E?'
p1736
tp1737
Rp1738
ag1
(g5
S'\xd0YE?'
p1739
tp1740
Rp1741
ag1
(g5
S'@ E?'
p1742
tp1743
Rp1744
ag1
(g5
S'3PE?'
p1745
tp1746
Rp1747
ag1
(g5
S'ayE?'
p1748
tp1749
Rp1750
ag1
(g5
S'p5E?'
p1751
tp1752
Rp1753
ag1
(g5
S'VuE?'
p1754
tp1755
Rp1756
ag1
(g5
S's.E?'
p1757
tp1758
Rp1759
ag1
(g5
S'qUE?'
p1760
tp1761
Rp1762
ag1
(g5
S'4CE?'
p1763
tp1764
Rp1765
ag1
(g5
S'\xe5\xfaD?'
p1766
tp1767
Rp1768
ag1
(g5
S'\xafZE?'
p1769
tp1770
Rp1771
ag1
(g5
S'S\\E?'
p1772
tp1773
Rp1774
ag1
(g5
S'\x8c\x08E?'
p1775
tp1776
Rp1777
ag1
(g5
S'\x10XE?'
p1778
tp1779
Rp1780
ag1
(g5
S'\x82$E?'
p1781
tp1782
Rp1783
ag1
(g5
S'IKE?'
p1784
tp1785
Rp1786
ag1
(g5
S'\xd1?E?'
p1787
tp1788
Rp1789
ag1
(g5
S'\xcf9E?'
p1790
tp1791
Rp1792
ag1
(g5
S'\xf6#E?'
p1793
tp1794
Rp1795
ag1
(g5
S'\x02uE?'
p1796
tp1797
Rp1798
ag1
(g5
S'\x8d(E?'
p1799
tp1800
Rp1801
ag1
(g5
S'\xd8dE?'
p1802
tp1803
Rp1804
ag1
(g5
S'\rLE?'
p1805
tp1806
Rp1807
ag1
(g5
S'ZTE?'
p1808
tp1809
Rp1810
ag1
(g5
S'\rlE?'
p1811
tp1812
Rp1813
ag1
(g5
S'\x93gE?'
p1814
tp1815
Rp1816
ag1
(g5
S':HE?'
p1817
tp1818
Rp1819
ag1
(g5
S'\xe4AE?'
p1820
tp1821
Rp1822
ag1
(g5
S'LqE?'
p1823
tp1824
Rp1825
ag1
(g5
S'\x1aiE?'
p1826
tp1827
Rp1828
ag1
(g5
S'\x03[E?'
p1829
tp1830
Rp1831
ag1
(g5
S'`YE?'
p1832
tp1833
Rp1834
ag1
(g5
S'\x10XE?'
p1835
tp1836
Rp1837
ag1
(g5
S'\x14dE?'
p1838
tp1839
Rp1840
ag1
(g5
S'\x89)E?'
p1841
tp1842
Rp1843
ag1
(g5
S'@zE?'
p1844
tp1845
Rp1846
ag1
(g5
S'\xecLE?'
p1847
tp1848
Rp1849
ag1
(g5
S'\xf6]E?'
p1850
tp1851
Rp1852
ag1
(g5
S'/QE?'
p1853
tp1854
Rp1855
ag1
(g5
S',XE?'
p1856
tp1857
Rp1858
ag1
(g5
S'\xba\x8bE?'
p1859
tp1860
Rp1861
ag1
(g5
S'\xa4pE?'
p1862
tp1863
Rp1864
ag1
(g5
S'\xedyE?'
p1865
tp1866
Rp1867
ag1
(g5
S'\xd6kE?'
p1868
tp1869
Rp1870
ag1
(g5
S'.\xa5E?'
p1871
tp1872
Rp1873
ag1
(g5
S'\x11xE?'
p1874
tp1875
Rp1876
ag1
(g5
S'\xa7OE?'
p1877
tp1878
Rp1879
ag1
(g5
S',eE?'
p1880
tp1881
Rp1882
ag1
(g5
S'\x94ZE?'
p1883
tp1884
Rp1885
ag1
(g5
S'`\x93E?'
p1886
tp1887
Rp1888
ag1
(g5
S'@\x87E?'
p1889
tp1890
Rp1891
ag1
(g5
S'\xec\x86E?'
p1892
tp1893
Rp1894
ag1
(g5
S'{sE?'
p1895
tp1896
Rp1897
ag1
(g5
S'\x14qE?'
p1898
tp1899
Rp1900
ag1
(g5
S'\xd2\x8cE?'
p1901
tp1902
Rp1903
ag1
(g5
S'\xb7\x7fE?'
p1904
tp1905
Rp1906
ag1
(g5
S'7\\E?'
p1907
tp1908
Rp1909
ag1
(g5
S'*_E?'
p1910
tp1911
Rp1912
ag1
(g5
S'\x8aiE?'
p1913
tp1914
Rp1915
ag1
(g5
S'\x08\x94E?'
p1916
tp1917
Rp1918
ag1
(g5
S' \x88E?'
p1919
tp1920
Rp1921
ag1
(g5
S',\xccE?'
p1922
tp1923
Rp1924
ag1
(g5
S'alE?'
p1925
tp1926
Rp1927
ag1
(g5
S'S\x89E?'
p1928
tp1929
Rp1930
ag1
(g5
S'9\x8fE?'
p1931
tp1932
Rp1933
ag1
(g5
S'crE?'
p1934
tp1935
Rp1936
ag1
(g5
S'M\x84E?'
p1937
tp1938
Rp1939
ag1
(g5
S'?gE?'
p1940
tp1941
Rp1942
ag1
(g5
S'+rE?'
p1943
tp1944
Rp1945
ag1
(g5
S'\x1b\x89E?'
p1946
tp1947
Rp1948
ag1
(g5
S';\xa2E?'
p1949
tp1950
Rp1951
ag1
(g5
S'\x11KE?'
p1952
tp1953
Rp1954
ag1
(g5
S'\xb4\x1fE?'
p1955
tp1956
Rp1957
ag1
(g5
S'\xa2jE?'
p1958
tp1959
Rp1960
ag1
(g5
S'\xca\x81E?'
p1961
tp1962
Rp1963
ag1
(g5
S'\xb1`E?'
p1964
tp1965
Rp1966
ag1
(g5
S'\x13\x8bE?'
p1967
tp1968
Rp1969
ag1
(g5
S'\x0f\x7fE?'
p1970
tp1971
Rp1972
ag1
(g5
S'<{E?'
p1973
tp1974
Rp1975
ag1
(g5
S'o\x96E?'
p1976
tp1977
Rp1978
ag1
(g5
S'\xc2\xa3E?'
p1979
tp1980
Rp1981
ag1
(g5
S' \x88E?'
p1982
tp1983
Rp1984
ag1
(g5
S'\xbejE?'
p1985
tp1986
Rp1987
ag1
(g5
S'\x90\xa8E?'
p1988
tp1989
Rp1990
ag1
(g5
S'\x99lE?'
p1991
tp1992
Rp1993
ag1
(g5
S'\x18pE?'
p1994
tp1995
Rp1996
ag1
(g5
S'\xbe\xa4E?'
p1997
tp1998
Rp1999
ag1
(g5
S'\xafZE?'
p2000
tp2001
Rp2002
ag1
(g5
S'\x17]E?'
p2003
tp2004
Rp2005
ag1
(g5
S'>\x81E?'
p2006
tp2007
Rp2008
ag1
(g5
S'\xe9mE?'
p2009
tp2010
Rp2011
ag1
(g5
S'b\x8cE?'
p2012
tp2013
Rp2014
ag1
(g5
S'\xfaiE?'
p2015
tp2016
Rp2017
ag1
(g5
S'\xba\x98E?'
p2018
tp2019
Rp2020
ag1
(g5
S'\xb2\xc7E?'
p2021
tp2022
Rp2023
ag1
(g5
S'\x7f\xb9E?'
p2024
tp2025
Rp2026
ag1
(g5
S'`\x86E?'
p2027
tp2028
Rp2029
ag1
(g5
S')lE?'
p2030
tp2031
Rp2032
ag1
(g5
S'[\x94E?'
p2033
tp2034
Rp2035
ag1
(g5
S'\x9aRE?'
p2036
tp2037
Rp2038
ag1
(g5
S'\xb4\x86E?'
p2039
tp2040
Rp2041
ag1
(g5
S'K\xabE?'
p2042
tp2043
Rp2044
ag1
(g5
S'(\x93E?'
p2045
tp2046
Rp2047
ag1
(g5
S'\xaf\xdbE?'
p2048
tp2049
Rp2050
ag1
(g5
S'\x18pE?'
p2051
tp2052
Rp2053
ag1
(g5
S'\xca\xaeE?'
p2054
tp2055
Rp2056
ag1
(g5
S'd\xccE?'
p2057
tp2058
Rp2059
ag1
(g5
S'\x00|E?'
p2060
tp2061
Rp2062
ag1
(g5
S'.kE?'
p2063
tp2064
Rp2065
ag1
(g5
S'j\xd1E?'
p2066
tp2067
Rp2068
ag1
(g5
S'\xff\xcfE?'
p2069
tp2070
Rp2071
ag1
(g5
S'\x8coE?'
p2072
tp2073
Rp2074
ag1
(g5
S'e\xb2E?'
p2075
tp2076
Rp2077
ag1
(g5
S')\xa6E?'
p2078
tp2079
Rp2080
ag1
(g5
S'\x05aE?'
p2081
tp2082
Rp2083
ag1
(g5
S']\x9aE?'
p2084
tp2085
Rp2086
ag1
(g5
S'\xc4|E?'
p2087
tp2088
Rp2089
ag1
(g5
S'\x1dbE?'
p2090
tp2091
Rp2092
ag1
(g5
S'\x18\x9dE?'
p2093
tp2094
Rp2095
ag1
(g5
S'V\xbcE?'
p2096
tp2097
Rp2098
ag1
(g5
S'\xe4nE?'
p2099
tp2100
Rp2101
ag1
(g5
S'\x15\x84E?'
p2102
tp2103
Rp2104
ag1
(g5
S'\xce\x80E?'
p2105
tp2106
Rp2107
ag1
(g5
S'G\xacE?'
p2108
tp2109
Rp2110
ag1
(g5
S'\x80\xccE?'
p2111
tp2112
Rp2113
ag1
(g5
S'[\xa1E?'
p2114
tp2115
Rp2116
ag1
(g5
S'&SE?'
p2117
tp2118
Rp2119
ag1
(g5
S'\x93\x94E?'
p2120
tp2121
Rp2122
ag1
(g5
S'\xd3\xacE?'
p2123
tp2124
Rp2125
ag1
(g5
S',\x9fE?'
p2126
tp2127
Rp2128
ag1
(g5
S'\xc3\x89E?'
p2129
tp2130
Rp2131
ag1
(g5
S'#\xd3D?'
p2132
tp2133
Rp2134
ag1
(g5
S'|\x93E?'
p2135
tp2136
Rp2137
ag1
(g5
S'\x04{E?'
p2138
tp2139
Rp2140
ag1
(g5
S'\xbe\xa4E?'
p2141
tp2142
Rp2143
ag1
(g5
S'k\xb7E?'
p2144
tp2145
Rp2146
ag1
(g5
S'\xbd\xbeE?'
p2147
tp2148
Rp2149
ag1
(g5
S'F\x99E?'
p2150
tp2151
Rp2152
ag1
(g5
S'p\xa9E?'
p2153
tp2154
Rp2155
ag1
(g5
S'p\xa9E?'
p2156
tp2157
Rp2158
ag1
(g5
S'\xbc\x91E?'
p2159
tp2160
Rp2161
ag1
(g5
S'>\xbbE?'
p2162
tp2163
Rp2164
ag1
(g5
S'\xdf\xb6E?'
p2165
tp2166
Rp2167
ag1
(g5
S'n\xa3E?'
p2168
tp2169
Rp2170
ag1
(g5
S'\xd2\x99E?'
p2171
tp2172
Rp2173
ag1
(g5
S'o\x89E?'
p2174
tp2175
Rp2176
ag1
(g5
S'\xa9\xbcE?'
p2177
tp2178
Rp2179
ag1
(g5
S'0\x9eE?'
p2180
tp2181
Rp2182
ag1
(g5
S'\xe6tE?'
p2183
tp2184
Rp2185
ag1
(g5
S'\x84\xd8E?'
p2186
tp2187
Rp2188
ag1
(g5
S'\xb0\x87E?'
p2189
tp2190
Rp2191
ag1
(g5
S'\x1d\x8fE?'
p2192
tp2193
Rp2194
ag1
(g5
S']\x9aE?'
p2195
tp2196
Rp2197
ag1
(g5
S'\x82^E?'
p2198
tp2199
Rp2200
ag1
(g5
S'\xab\x88E?'
p2201
tp2202
Rp2203
ag1
(g5
S'\xf6\x97E?'
p2204
tp2205
Rp2206
ag1
(g5
S'm\xbdE?'
p2207
tp2208
Rp2209
ag1
(g5
S'\x91\x8eE?'
p2210
tp2211
Rp2212
ag1
(g5
S'\x12\xd2E?'
p2213
tp2214
Rp2215
ag1
(g5
S'Y\x9bE?'
p2216
tp2217
Rp2218
ag1
(g5
S'\x15\xb1E?'
p2219
tp2220
Rp2221
ag1
(g5
S'\x88\xaaE?'
p2222
tp2223
Rp2224
ag1
(g5
S'>\x8eE?'
p2225
tp2226
Rp2227
ag1
(g5
S',\x9fE?'
p2228
tp2229
Rp2230
ag1
(g5
S'\x90{E?'
p2231
tp2232
Rp2233
ag1
(g5
S'.\xa5E?'
p2234
tp2235
Rp2236
ag1
(g5
S'\xdajE?'
p2237
tp2238
Rp2239
ag1
(g5
S'\xc6\x82E?'
p2240
tp2241
Rp2242
ag1
(g5
S'`\x93E?'
p2243
tp2244
Rp2245
ag1
(g5
S'\xb5\xb3E?'
p2246
tp2247
Rp2248
ag1
(g5
S'\xebsE?'
p2249
tp2250
Rp2251
ag1
(g5
S'\xc2\xb0E?'
p2252
tp2253
Rp2254
ag1
(g5
S'\x06\xbbE?'
p2255
tp2256
Rp2257
ag1
(g5
S'|\xcdE?'
p2258
tp2259
Rp2260
ag1
(g5
S'\x87\xb7E?'
p2261
tp2262
Rp2263
ag1
(g5
S'\x0b\xadE?'
p2264
tp2265
Rp2266
ag1
(g5
S'w\xa1E?'
p2267
tp2268
Rp2269
ag1
(g5
S'\xac\xb5E?'
p2270
tp2271
Rp2272
ag1
(g5
S';\xc2E?'
p2273
tp2274
Rp2275
ag1
(g5
S')\xa6E?'
p2276
tp2277
Rp2278
ag1
(g5
S't\x88E?'
p2279
tp2280
Rp2281
ag1
(g5
S'\x1a\xa3E?'
p2282
tp2283
Rp2284
ag1
(g5
S'P\xe4E?'
p2285
tp2286
Rp2287
ag1
(g5
S'\x19VE?'
p2288
tp2289
Rp2290
ag1
(g5
S'u\x8eE?'
p2291
tp2292
Rp2293
ag1
(g5
S'W\x95E?'
p2294
tp2295
Rp2296
ag1
(g5
S'\xb4\xc0E?'
p2297
tp2298
Rp2299
ag1
(g5
S'!\xa8E?'
p2300
tp2301
Rp2302
ag1
(g5
S'A\xd4E?'
p2303
tp2304
Rp2305
ag1
(g5
S'\xea\xbaE?'
p2306
tp2307
Rp2308
ag1
(g5
S'e\xb2E?'
p2309
tp2310
Rp2311
ag1
(g5
S'\xc0\xaaE?'
p2312
tp2313
Rp2314
ag1
(g5
S'\x80\x92E?'
p2315
tp2316
Rp2317
ag1
(g5
S'\xf8\xaaE?'
p2318
tp2319
Rp2320
ag1
(g5
S'\xad\xc8E?'
p2321
tp2322
Rp2323
ag1
(g5
S'\x05aE?'
p2324
tp2325
Rp2326
ag1
(g5
S'\xac\xb5E?'
p2327
tp2328
Rp2329
ag1
(g5
S'\xd6\x98E?'
p2330
tp2331
Rp2332
ag1
(g5
S'A\xa7E?'
p2333
tp2334
Rp2335
ag1
(g5
S'\xb3\xa0E?'
p2336
tp2337
Rp2338
ag1
(g5
S'\xbb\xabE?'
p2339
tp2340
Rp2341
ag1
(g5
S'\xb9\xb2E?'
p2342
tp2343
Rp2344
ag1
(g5
S'\xa4\x9dE?'
p2345
tp2346
Rp2347
ag1
(g5
S't\xa8E?'
p2348
tp2349
Rp2350
ag1
(g5
S'\xa7\xb6E?'
p2351
tp2352
Rp2353
ag1
(g5
S'\x8c\xb6E?'
p2354
tp2355
Rp2356
ag1
(g5
S',\x9fE?'
p2357
tp2358
Rp2359
ag1
(g5
S'\xd3\x9fE?'
p2360
tp2361
Rp2362
ag1
(g5
S'(\xcdE?'
p2363
tp2364
Rp2365
ag1
(g5
S'd\x9fE?'
p2366
tp2367
Rp2368
ag1
(g5
S'_\xa0E?'
p2369
tp2370
Rp2371
ag1
(g5
S'X\xb5E?'
p2372
tp2373
Rp2374
ag1
(g5
S'\xb6\xc6E?'
p2375
tp2376
Rp2377
ag1
(g5
S'\xf7\xc4E?'
p2378
tp2379
Rp2380
ag1
(g5
S'h\x91E?'
p2381
tp2382
Rp2383
ag1
(g5
S'Y\x9bE?'
p2384
tp2385
Rp2386
ag1
(g5
S'\xb3\xdaE?'
p2387
tp2388
Rp2389
ag1
(g5
S'z\xbaE?'
p2390
tp2391
Rp2392
ag1
(g5
S'\xdb\xb7E?'
p2393
tp2394
Rp2395
ag1
(g5
S'\xc9\x9bE?'
p2396
tp2397
Rp2398
ag1
(g5
S'\xf8\x9dE?'
p2399
tp2400
Rp2401
ag1
(g5
S' \xc2E?'
p2402
tp2403
Rp2404
ag1
(g5
S'\xb3\xcdE?'
p2405
tp2406
Rp2407
ag1
(g5
S'\x86\xd1E?'
p2408
tp2409
Rp2410
ag1
(g5
S'\x0e\x8cE?'
p2411
tp2412
Rp2413
ag1
(g5
S'\xec\xc0E?'
p2414
tp2415
Rp2416
ag1
(g5
S'u\x9bE?'
p2417
tp2418
Rp2419
ag1
(g5
S'\xbdJE?'
p2420
tp2421
Rp2422
ag1
(g5
S'\xa3\xc4E?'
p2423
tp2424
Rp2425
ag1
(g5
S'^\x01F?'
p2426
tp2427
Rp2428
ag1
(g5
S'u\xd5E?'
p2429
tp2430
Rp2431
ag1
(g5
S'\xff\x88E?'
p2432
tp2433
Rp2434
ag1
(g5
S'\x91\x8eE?'
p2435
tp2436
Rp2437
ag1
(g5
S'#\xa1E?'
p2438
tp2439
Rp2440
ag1
(g5
S'xzE?'
p2441
tp2442
Rp2443
ag1
(g5
S"'\xdaE?"
p2444
tp2445
Rp2446
ag1
(g5
S'\xbe\x97E?'
p2447
tp2448
Rp2449
ag1
(g5
S'T\xa9E?'
p2450
tp2451
Rp2452
ag1
(g5
S';\xc2E?'
p2453
tp2454
Rp2455
ag1
(g5
S'\x04\xb5E?'
p2456
tp2457
Rp2458
ag1
(g5
S'q\x9cE?'
p2459
tp2460
Rp2461
ag1
(g5
S'\xb6\xb9E?'
p2462
tp2463
Rp2464
ag1
(g5
S'\xe4\xb5E?'
p2465
tp2466
Rp2467
ag1
(g5
S'$\x87E?'
p2468
tp2469
Rp2470
ag1
(g5
S'\xfb\xb6E?'
p2471
tp2472
Rp2473
ag1
(g5
S'\xc3\xb6E?'
p2474
tp2475
Rp2476
ag1
(g5
S'\xc3\xf0E?'
p2477
tp2478
Rp2479
ag1
(g5
S'\x97fE?'
p2480
tp2481
Rp2482
ag1
(g5
S'\x92\xe8E?'
p2483
tp2484
Rp2485
ag1
(g5
S'\xfc\x9cE?'
p2486
tp2487
Rp2488
ag1
(g5
S'\xd2\xb9E?'
p2489
tp2490
Rp2491
ag1
(g5
S'\x0e\xd3E?'
p2492
tp2493
Rp2494
ag1
(g5
S'#\xdbE?'
p2495
tp2496
Rp2497
ag1
(g5
S'\x96\xc7E?'
p2498
tp2499
Rp2500
ag1
(g5
S'\xee\xc6E?'
p2501
tp2502
Rp2503
ag1
(g5
S'\xc8\xa8E?'
p2504
tp2505
Rp2506
ag1
(g5
S'\x04\xe2E?'
p2507
tp2508
Rp2509
ag1
(g5
S'\xbc\x9eE?'
p2510
tp2511
Rp2512
ag1
(g5
S'U\xc9E?'
p2513
tp2514
Rp2515
ag1
(g5
S'J\x98E?'
p2516
tp2517
Rp2518
ag1
(g5
S'\x01\xc9E?'
p2519
tp2520
Rp2521
ag1
(g5
S'\xc2\xddE?'
p2522
tp2523
Rp2524
ag1
(g5
S'\x11\xbfE?'
p2525
tp2526
Rp2527
ag1
(g5
S'C\xadE?'
p2528
tp2529
Rp2530
ag1
(g5
S'\x9a\xc6E?'
p2531
tp2532
Rp2533
ag1
(g5
S'B\x01F?'
p2534
tp2535
Rp2536
ag1
(g5
S'\xd0\xc0E?'
p2537
tp2538
Rp2539
ag1
(g5
S'\xb2\xc7E?'
p2540
tp2541
Rp2542
ag1
(g5
S'\x15\xf8E?'
p2543
tp2544
Rp2545
ag1
(g5
S'\x82\xd2E?'
p2546
tp2547
Rp2548
ag1
(g5
S'T\xd6E?'
p2549
tp2550
Rp2551
ag1
(g5
S'\xf7\xc4E?'
p2552
tp2553
Rp2554
ag1
(g5
S'W\xa2E?'
p2555
tp2556
Rp2557
ag1
(g5
S'\x9b\xd9E?'
p2558
tp2559
Rp2560
ag1
(g5
S'\x15\xebE?'
p2561
tp2562
Rp2563
ag1
(g5
S'"\xbbE?'
p2564
tp2565
Rp2566
ag1
(g5
S'\x99\xb3E?'
p2567
tp2568
Rp2569
ag1
(g5
S'\x8a\xb0E?'
p2570
tp2571
Rp2572
ag1
(g5
S'm\xbdE?'
p2573
tp2574
Rp2575
ag1
(g5
S'\xad\xc8E?'
p2576
tp2577
Rp2578
ag1
(g5
S'\xd9\xbeE?'
p2579
tp2580
Rp2581
ag1
(g5
S'%\xe1E?'
p2582
tp2583
Rp2584
ag1
(g5
S'\x84\x91E?'
p2585
tp2586
Rp2587
ag1
(g5
S'\x19\xf7E?'
p2588
tp2589
Rp2590
ag1
(g5
S'\xc2\xddE?'
p2591
tp2592
Rp2593
ag1
(g5
S'\x10\xccE?'
p2594
tp2595
Rp2596
ag1
(g5
S'\xc8\xe2E?'
p2597
tp2598
Rp2599
ag1
(g5
S'\x9a\x8cE?'
p2600
tp2601
Rp2602
ag1
(g5
S'&\xc7E?'
p2603
tp2604
Rp2605
ag1
(g5
S'm\xcaE?'
p2606
tp2607
Rp2608
ag1
(g5
S'\x8c\xd6E?'
p2609
tp2610
Rp2611
ag1
(g5
S'\xa2\xa4E?'
p2612
tp2613
Rp2614
ag1
(g5
S'\xd9\xbeE?'
p2615
tp2616
Rp2617
ag1
(g5
S'\xe5\xc8E?'
p2618
tp2619
Rp2620
ag1
(g5
S'P\x9dE?'
p2621
tp2622
Rp2623
ag1
(g5
S'\x98\x93E?'
p2624
tp2625
Rp2626
ag1
(g5
S'\x85\xebE?'
p2627
tp2628
Rp2629
ag1
(g5
S'\x99\xd3E?'
p2630
tp2631
Rp2632
ag1
(g5
S'\x8d\xc9E?'
p2633
tp2634
Rp2635
ag1
(g5
S'\x95\x9aE?'
p2636
tp2637
Rp2638
ag1
(g5
S'j\x97E?'
p2639
tp2640
Rp2641
ag1
(g5
S'a\xe0E?'
p2642
tp2643
Rp2644
ag1
(g5
S'\x11\xecE?'
p2645
tp2646
Rp2647
ag1
(g5
S'\x12\x98E?'
p2648
tp2649
Rp2650
ag1
(g5
S'\xa3\xb7E?'
p2651
tp2652
Rp2653
ag1
(g5
S'\x9f\xb8E?'
p2654
tp2655
Rp2656
ag1
(g5
S'\xdf\x89E?'
p2657
tp2658
Rp2659
ag1
(g5
S'E\xa6E?'
p2660
tp2661
Rp2662
ag1
(g5
S'\x96\x80E?'
p2663
tp2664
Rp2665
ag1
(g5
S'\xeb\xcdE?'
p2666
tp2667
Rp2668
ag1
(g5
S'\xef\xd9E?'
p2669
tp2670
Rp2671
ag1
(g5
S'I\xdfE?'
p2672
tp2673
Rp2674
ag1
(g5
S'\xcb\xa1E?'
p2675
tp2676
Rp2677
ag1
(g5
S't\xb5E?'
p2678
tp2679
Rp2680
ag1
(g5
S'\x99\xd3E?'
p2681
tp2682
Rp2683
ag1
(g5
S'\xef\xacE?'
p2684
tp2685
Rp2686
ag1
(g5
S'\xd0\xc0E?'
p2687
tp2688
Rp2689
ag1
(g5
S'\xf0\xbfE?'
p2690
tp2691
Rp2692
ag1
(g5
S'\xc8\xe2E?'
p2693
tp2694
Rp2695
ag1
(g5
S'_\xe7E?'
p2696
tp2697
Rp2698
ag1
(g5
S'\xe0\x9cE?'
p2699
tp2700
Rp2701
ag1
(g5
S'\x7f\x7fE?'
p2702
tp2703
Rp2704
ag1
(g5
S'\xd7\xf2E?'
p2705
tp2706
Rp2707
ag1
(g5
S'\xda\xdeE?'
p2708
tp2709
Rp2710
ag1
(g5
S'\xdd\xeaE?'
p2711
tp2712
Rp2713
ag1
(g5
S'\r\xb3E?'
p2714
tp2715
Rp2716
ag1
(g5
S'\xe9\xc7E?'
p2717
tp2718
Rp2719
ag1
(g5
S'\xd6\xd2E?'
p2720
tp2721
Rp2722
ag1
(g5
S'T\xa9E?'
p2723
tp2724
Rp2725
ag1
(g5
S'\xce\xf4E?'
p2726
tp2727
Rp2728
ag1
(g5
S'~\xf3E?'
p2729
tp2730
Rp2731
ag1
(g5
S"'\xadE?"
p2732
tp2733
Rp2734
ag1
(g5
S'\x90\xb5E?'
p2735
tp2736
Rp2737
ag1
(g5
S'o\xc3E?'
p2738
tp2739
Rp2740
ag1
(g5
S'-\xecE?'
p2741
tp2742
Rp2743
ag1
(g5
S'"\x81E?'
p2744
tp2745
Rp2746
ag1
(g5
S'\xeb\xcdE?'
p2747
tp2748
Rp2749
ag1
(g5
S'^\xbaE?'
p2750
tp2751
Rp2752
ag1
(g5
S'8\xb6E?'
p2753
tp2754
Rp2755
ag1
(g5
S'\\\xc1E?'
p2756
tp2757
Rp2758
ag1
(g5
S'B\xc7E?'
p2759
tp2760
Rp2761
ag1
(g5
S'\x90\xb5E?'
p2762
tp2763
Rp2764
ag1
(g5
S'\xfe\xafE?'
p2765
tp2766
Rp2767
ag1
(g5
S'\x9e\x98E?'
p2768
tp2769
Rp2770
ag1
(g5
S'r\xdcE?'
p2771
tp2772
Rp2773
ag1
(g5
S'\x96\xbaE?'
p2774
tp2775
Rp2776
ag1
(g5
S'\x0b\xadE?'
p2777
tp2778
Rp2779
ag1
(g5
S'\x95\xd4E?'
p2780
tp2781
Rp2782
ag1
(g5
S'\x06\xe8E?'
p2783
tp2784
Rp2785
ag1
(g5
S'{\xe7E?'
p2786
tp2787
Rp2788
ag1
(g5
S'\x80\xbfE?'
p2789
tp2790
Rp2791
ag1
(g5
S'X\xb5E?'
p2792
tp2793
Rp2794
ag1
(g5
S'\x1c\xe3E?'
p2795
tp2796
Rp2797
ag1
(g5
S'V\xbcE?'
p2798
tp2799
Rp2800
ag1
(g5
S'\xbf\xf1E?'
p2801
tp2802
Rp2803
ag1
(g5
S'T\x10F?'
p2804
tp2805
Rp2806
ag1
(g5
S'\x92\xbbE?'
p2807
tp2808
Rp2809
ag1
(g5
S'\x01\xd6E?'
p2810
tp2811
Rp2812
ag1
(g5
S'\x13\xf2E?'
p2813
tp2814
Rp2815
ag1
(g5
S'\xef\xe6E?'
p2816
tp2817
Rp2818
ag1
(g5
S'\x02\xe9E?'
p2819
tp2820
Rp2821
ag1
(g5
S'\xc1\xbdE?'
p2822
tp2823
Rp2824
ag1
(g5
S'"\xf5E?'
p2825
tp2826
Rp2827
ag1
(g5
S'1\x91E?'
p2828
tp2829
Rp2830
ag1
(g5
S'{\x14F?'
p2831
tp2832
Rp2833
ag1
(g5
S'\xe6\xe8E?'
p2834
tp2835
Rp2836
ag1
(g5
S'J\xffE?'
p2837
tp2838
Rp2839
ag1
(g5
S'\xe3\tF?'
p2840
tp2841
Rp2842
ag1
(g5
S'\\\xb4E?'
p2843
tp2844
Rp2845
ag1
(g5
S'\xe4\xefE?'
p2846
tp2847
Rp2848
ag1
(g5
S'\xc6\xdcE?'
p2849
tp2850
Rp2851
ag1
(g5
S'#\x08F?'
p2852
tp2853
Rp2854
ag1
(g5
S'}\xe0E?'
p2855
tp2856
Rp2857
ag1
(g5
S'\xd0\xfaE?'
p2858
tp2859
Rp2860
ag1
(g5
S'\x04\x88E?'
p2861
tp2862
Rp2863
ag1
(g5
S'\xca\xe8E?'
p2864
tp2865
Rp2866
ag1
(g5
S'\x07\xceE?'
p2867
tp2868
Rp2869
ag1
(g5
S'\x0b\xdaE?'
p2870
tp2871
Rp2872
ag1
(g5
S'\xed\xe0E?'
p2873
tp2874
Rp2875
ag1
(g5
S'\x85\xebE?'
p2876
tp2877
Rp2878
ag1
(g5
S'P\x9dE?'
p2879
tp2880
Rp2881
ag1
(g5
S'\xf3\xf2E?'
p2882
tp2883
Rp2884
ag1
(g5
S'\xbf\xb7E?'
p2885
tp2886
Rp2887
ag1
(g5
S'P\xd7E?'
p2888
tp2889
Rp2890
ag1
(g5
S'T\xe3E?'
p2891
tp2892
Rp2893
ag1
(g5
S'\x7f\xb9E?'
p2894
tp2895
Rp2896
ag1
(g5
S'\x1c\xb6E?'
p2897
tp2898
Rp2899
ag1
(g5
S'\x90\xa8E?'
p2900
tp2901
Rp2902
ag1
(g5
S'Q\xcaE?'
p2903
tp2904
Rp2905
ag1
(g5
S'\xcd\xd4E?'
p2906
tp2907
Rp2908
ag1
(g5
S'\x8a\nF?'
p2909
tp2910
Rp2911
ag1
(g5
S'a\rF?'
p2912
tp2913
Rp2914
ag1
(g5
S'\xb8\xbfE?'
p2915
tp2916
Rp2917
ag1
(g5
S'\xd8\xd8E?'
p2918
tp2919
Rp2920
ag1
(g5
S'\xa7\xb6E?'
p2921
tp2922
Rp2923
ag1
(g5
S'\\\xc1E?'
p2924
tp2925
Rp2926
ag1
(g5
S't\xe2E?'
p2927
tp2928
Rp2929
ag1
(g5
S'\xc5\xf6E?'
p2930
tp2931
Rp2932
ag1
(g5
S'\xeb\xa0E?'
p2933
tp2934
Rp2935
ag1
(g5
S'\xd6\x0cF?'
p2936
tp2937
Rp2938
ag1
(g5
S'\xdb\xc4E?'
p2939
tp2940
Rp2941
ag1
(g5
S'\x1c\x1dF?'
p2942
tp2943
Rp2944
ag1
(g5
S'\xaf\xceE?'
p2945
tp2946
Rp2947
ag1
(g5
S'+\xe6E?'
p2948
tp2949
Rp2950
ag1
(g5
S'\x9d\xa5E?'
p2951
tp2952
Rp2953
ag1
(g5
S'\x00\x1dF?'
p2954
tp2955
Rp2956
ag1
(g5
S'\xb8\xbfE?'
p2957
tp2958
Rp2959
ag1
(g5
S'\xe2\xe9E?'
p2960
tp2961
Rp2962
ag1
(g5
S'\xa3\xc4E?'
p2963
tp2964
Rp2965
ag1
(g5
S'\xd1\xe0E?'
p2966
tp2967
Rp2968
ag1
(g5
S'\xb6\xc6E?'
p2969
tp2970
Rp2971
ag1
(g5
S'\xd6\x0cF?'
p2972
tp2973
Rp2974
ag1
(g5
S'\xd3\xd9E?'
p2975
tp2976
Rp2977
ag1
(g5
S'\xe0\xd6E?'
p2978
tp2979
Rp2980
ag1
(g5
S'4\xe4E?'
p2981
tp2982
Rp2983
ag1
(g5
S"\xec'F?"
p2984
tp2985
Rp2986
ag1
(g5
S'z\xf4E?'
p2987
tp2988
Rp2989
ag1
(g5
S'\xe7\xdbE?'
p2990
tp2991
Rp2992
ag1
(g5
S'\xea\xf4E?'
p2993
tp2994
Rp2995
ag1
(g5
S'}\rF?'
p2996
tp2997
Rp2998
ag1
(g5
S'C\xdaE?'
p2999
tp3000
Rp3001
ag1
(g5
S'y\xe1E?'
p3002
tp3003
Rp3004
ag1
(g5
S'\xa2\xfeE?'
p3005
tp3006
Rp3007
ag1
(g5
S'Y\xd5E?'
p3008
tp3009
Rp3010
ag1
(g5
S'y\xe1E?'
p3011
tp3012
Rp3013
ag1
(g5
S'\xa9\xf6E?'
p3014
tp3015
Rp3016
ag1
(g5
S'6\nF?'
p3017
tp3018
Rp3019
ag1
(g5
S'q\xc9E?'
p3020
tp3021
Rp3022
ag1
(g5
S'\x01\x03F?'
p3023
tp3024
Rp3025
ag1
(g5
S'-\xbfE?'
p3026
tp3027
Rp3028
ag1
(g5
S'O}E?'
p3029
tp3030
Rp3031
ag1
(g5
S'\xda\x0bF?'
p3032
tp3033
Rp3034
ag1
(g5
S'\xbb\xf2E?'
p3035
tp3036
Rp3037
ag1
(g5
S'\xe0\xe3E?'
p3038
tp3039
Rp3040
ag1
(g5
S'1\xebE?'
p3041
tp3042
Rp3043
ag1
(g5
S'\x8d\xbcE?'
p3044
tp3045
Rp3046
ag1
(g5
S'\x0f\xb9E?'
p3047
tp3048
Rp3049
ag1
(g5
S'\x87\x8aE?'
p3050
tp3051
Rp3052
ag1
(g5
S'#\x15F?'
p3053
tp3054
Rp3055
ag1
(g5
S'F\xf3E?'
p3056
tp3057
Rp3058
ag1
(g5
S')\xe0E?'
p3059
tp3060
Rp3061
ag1
(g5
S'V\xdcE?'
p3062
tp3063
Rp3064
ag1
(g5
S'\x89\xcaE?'
p3065
tp3066
Rp3067
ag1
(g5
S'\xbf\xe4E?'
p3068
tp3069
Rp3070
ag1
(g5
S'@\xeeE?'
p3071
tp3072
Rp3073
ag1
(g5
S'g\xf2E?'
p3074
tp3075
Rp3076
ag1
(g5
S'\xec\xfaE?'
p3077
tp3078
Rp3079
ag1
(g5
S'p\x10F?'
p3080
tp3081
Rp3082
ag1
(g5
S'{\x14F?'
p3083
tp3084
Rp3085
ag1
(g5
S'\xbb\x12F?'
p3086
tp3087
Rp3088
ag1
(g5
S'\x00\xf0E?'
p3089
tp3090
Rp3091
ag1
(g5
S'\x82\xc5E?'
p3092
tp3093
Rp3094
ag1
(g5
S'\x01\xd6E?'
p3095
tp3096
Rp3097
ag1
(g5
S'\xfa\x17F?'
p3098
tp3099
Rp3100
ag1
(g5
S'\xd1\x1aF?'
p3101
tp3102
Rp3103
ag1
(g5
S'\t\xe1E?'
p3104
tp3105
Rp3106
ag1
(g5
S'\x10\x06F?'
p3107
tp3108
Rp3109
ag1
(g5
S'`\xfaE?'
p3110
tp3111
Rp3112
ag1
(g5
S'\\\xfbE?'
p3113
tp3114
Rp3115
ag1
(g5
S'\xb0zE?'
p3116
tp3117
Rp3118
ag1
(g5
S'\x18\xd7E?'
p3119
tp3120
Rp3121
ag1
(g5
S'(\x07F?'
p3122
tp3123
Rp3124
ag1
(g5
S'\xae"F?'
p3125
tp3126
Rp3127
ag1
(g5
S'9\xf6E?'
p3128
tp3129
Rp3130
ag1
(g5
S'\x9f\xf2E?'
p3131
tp3132
Rp3133
ag1
(g5
S'\xe3\tF?'
p3134
tp3135
Rp3136
ag1
(g5
S'\xe4\x1cF?'
p3137
tp3138
Rp3139
ag1
(g5
S'\xdd\xbdE?'
p3140
tp3141
Rp3142
ag1
(g5
S'\x01\x03F?'
p3143
tp3144
Rp3145
ag1
(g5
S'5\xf7E?'
p3146
tp3147
Rp3148
ag1
(g5
S'\xee\xf3E?'
p3149
tp3150
Rp3151
ag1
(g5
S'\xc3\xc3E?'
p3152
tp3153
Rp3154
ag1
(g5
S'\x85\xebE?'
p3155
tp3156
Rp3157
ag1
(g5
S'\xf8\x11F?'
p3158
tp3159
Rp3160
ag1
(g5
S'N\x0bF?'
p3161
tp3162
Rp3163
ag1
(g5
S'`\xfaE?'
p3164
tp3165
Rp3166
ag1
(g5
S'E\xe0E?'
p3167
tp3168
Rp3169
ag1
(g5
S'\xe0\x10F?'
p3170
tp3171
Rp3172
ag1
(g5
S'h\x05F?'
p3173
tp3174
Rp3175
ag1
(g5
S'\xc3\xfdE?'
p3176
tp3177
Rp3178
ag1
(g5
S'R\xeaE?'
p3179
tp3180
Rp3181
ag1
(g5
S'\xae\xf5E?'
p3182
tp3183
Rp3184
ag1
(g5
S'\xed\xd3E?'
p3185
tp3186
Rp3187
ag1
(g5
S'\xbe\x0bF?'
p3188
tp3189
Rp3190
ag1
(g5
S'\x82\xd2E?'
p3191
tp3192
Rp3193
ag1
(g5
S'5\xf7E?'
p3194
tp3195
Rp3196
ag1
(g5
S'g\x1fF?'
p3197
tp3198
Rp3199
ag1
(g5
S'B\x01F?'
p3200
tp3201
Rp3202
ag1
(g5
S'\xb7\xd9E?'
p3203
tp3204
Rp3205
ag1
(g5
S'y\xd4E?'
p3206
tp3207
Rp3208
ag1
(g5
S'\x99\xd3E?'
p3209
tp3210
Rp3211
ag1
(g5
S'w\x08F?'
p3212
tp3213
Rp3214
ag1
(g5
S'\xb8\xf9E?'
p3215
tp3216
Rp3217
ag1
(g5
S"\x98'F?"
p3218
tp3219
Rp3220
ag1
(g5
S'N\xdeE?'
p3221
tp3222
Rp3223
ag1
(g5
S'f\x0cF?'
p3224
tp3225
Rp3226
ag1
(g5
S'\x97\x07F?'
p3227
tp3228
Rp3229
ag1
(g5
S'\x00\x10F?'
p3230
tp3231
Rp3232
ag1
(g5
S'\x0f\xe6E?'
p3233
tp3234
Rp3235
ag1
(g5
S'\x84\x12F?'
p3236
tp3237
Rp3238
ag1
(g5
S'\x1c\x10F?'
p3239
tp3240
Rp3241
ag1
(g5
S'Y\x02F?'
p3242
tp3243
Rp3244
ag1
(g5
S'O\xfeE?'
p3245
tp3246
Rp3247
ag1
(g5
S'\x1a\x17F?'
p3248
tp3249
Rp3250
ag1
(g5
S'\x06\xf5E?'
p3251
tp3252
Rp3253
ag1
(g5
S'o\xfdE?'
p3254
tp3255
Rp3256
ag1
(g5
S'\x01\x03F?'
p3257
tp3258
Rp3259
ag1
(g5
S'\x08(F?'
p3260
tp3261
Rp3262
ag1
(g5
S'T\x1dF?'
p3263
tp3264
Rp3265
ag1
(g5
S'\xac)F?'
p3266
tp3267
Rp3268
ag1
(g5
S'/\xe5E?'
p3269
tp3270
Rp3271
ag1
(g5
S't\xefE?'
p3272
tp3273
Rp3274
ag1
(g5
S'5\x04F?'
p3275
tp3276
Rp3277
ag1
(g5
S'\x12\xffE?'
p3278
tp3279
Rp3280
ag1
(g5
S'S\xf0E?'
p3281
tp3282
Rp3283
ag1
(g5
S'\x93\xdbE?'
p3284
tp3285
Rp3286
ag1
(g5
S'\x0b\xe7E?'
p3287
tp3288
Rp3289
ag1
(g5
S'\x8b\xf0E?'
p3290
tp3291
Rp3292
ag1
(g5
S'\xcf\x14F?'
p3293
tp3294
Rp3295
ag1
(g5
S'\xd2\x00F?'
p3296
tp3297
Rp3298
ag1
(g5
S'\xd9\xebE?'
p3299
tp3300
Rp3301
ag1
(g5
S'm$F?'
p3302
tp3303
Rp3304
ag1
(g5
S'\x8a\xddE?'
p3305
tp3306
Rp3307
ag1
(g5
S'|\xedE?'
p3308
tp3309
Rp3310
ag1
(g5
S'k\xf1E?'
p3311
tp3312
Rp3313
ag1
(g5
S'\x17+F?'
p3314
tp3315
Rp3316
ag1
(g5
S'A\x0eF?'
p3317
tp3318
Rp3319
ag1
(g5
S'9\x03F?'
p3320
tp3321
Rp3322
ag1
(g5
S'\xb9\xecE?'
p3323
tp3324
Rp3325
ag1
(g5
S'\xd2\xc6E?'
p3326
tp3327
Rp3328
ag1
(g5
S'\xee\xf3E?'
p3329
tp3330
Rp3331
ag1
(g5
S'@\xeeE?'
p3332
tp3333
Rp3334
ag1
(g5
S'.\xffE?'
p3335
tp3336
Rp3337
ag1
(g5
S'\xb7\xd9E?'
p3338
tp3339
Rp3340
ag1
(g5
S'o\xc3E?'
p3341
tp3342
Rp3343
ag1
(g5
S'\x91\x02F?'
p3344
tp3345
Rp3346
ag1
(g5
S'\xc5\x03F?'
p3347
tp3348
Rp3349
ag1
(g5
S'\xdf\xfdE?'
p3350
tp3351
Rp3352
ag1
(g5
S'\x8e\xe9E?'
p3353
tp3354
Rp3355
ag1
(g5
S'\x0e\x00F?'
p3356
tp3357
Rp3358
ag1
(g5
S'\x10\x06F?'
p3359
tp3360
Rp3361
ag1
(g5
S'\x96\xe7E?'
p3362
tp3363
Rp3364
ag1
(g5
S'\x81\x19F?'
p3365
tp3366
Rp3367
ag1
(g5
S'r\xdcE?'
p3368
tp3369
Rp3370
ag1
(g5
S'm\xbdE?'
p3371
tp3372
Rp3373
ag1
(g5
S'R\xddE?'
p3374
tp3375
Rp3376
ag1
(g5
S'`\xcdE?'
p3377
tp3378
Rp3379
ag1
(g5
S'\x19\x04F?'
p3380
tp3381
Rp3382
ag1
(g5
S'\xc6#F?'
p3383
tp3384
Rp3385
ag1
(g5
S'd\xf9E?'
p3386
tp3387
Rp3388
ag1
(g5
S'!\x02F?'
p3389
tp3390
Rp3391
ag1
(g5
S'\xd7\xf2E?'
p3392
tp3393
Rp3394
ag1
(g5
S'\x89\xf7E?'
p3395
tp3396
Rp3397
ag1
(g5
S'Z\xf5E?'
p3398
tp3399
Rp3400
ag1
(g5
S'\x91\xd5E?'
p3401
tp3402
Rp3403
ag1
(g5
S'k\xf1E?'
p3404
tp3405
Rp3406
ag1
(g5
S'\x88\x04F?'
p3407
tp3408
Rp3409
ag1
(g5
S'g\xf2E?'
p3410
tp3411
Rp3412
ag1
(g5
S'\xe6\x15F?'
p3413
tp3414
Rp3415
ag1
(g5
S'\xec\xfaE?'
p3416
tp3417
Rp3418
ag1
(g5
S'\xf3\x12F?'
p3419
tp3420
Rp3421
ag1
(g5
S'N\xdeE?'
p3422
tp3423
Rp3424
ag1
(g5
S'O\x1eF?'
p3425
tp3426
Rp3427
ag1
(g5
S'z\xf4E?'
p3428
tp3429
Rp3430
ag1
(g5
S'\xef\xe6E?'
p3431
tp3432
Rp3433
ag1
(g5
S'<\xe2E?'
p3434
tp3435
Rp3436
ag1
(g5
S'\xbb\xb8E?'
p3437
tp3438
Rp3439
ag1
(g5
S'\xc6#F?'
p3440
tp3441
Rp3442
ag1
(g5
S'A\x0eF?'
p3443
tp3444
Rp3445
ag1
(g5
S'b\x00F?'
p3446
tp3447
Rp3448
ag1
(g5
S'\xe3\xfcE?'
p3449
tp3450
Rp3451
ag1
(g5
S'v\xbbE?'
p3452
tp3453
Rp3454
ag1
(g5
S'f\xffE?'
p3455
tp3456
Rp3457
ag1
(g5
S'\x06"F?'
p3458
tp3459
Rp3460
ag1
(g5
S'U\x03F?'
p3461
tp3462
Rp3463
ag1
(g5
S'\x86\xdeE?'
p3464
tp3465
Rp3466
ag1
(g5
S'\xbe\xd1E?'
p3467
tp3468
Rp3469
ag1
(g5
S'\x01\xf6E?'
p3470
tp3471
Rp3472
ag1
(g5
S'\x12\x0cF?'
p3473
tp3474
Rp3475
ag1
(g5
S'\xc0\xd7E?'
p3476
tp3477
Rp3478
ag1
(g5
S'\xfc\xe3E?'
p3479
tp3480
Rp3481
ag1
(g5
S'\x8a\nF?'
p3482
tp3483
Rp3484
ag1
(g5
S'@\xfbE?'
p3485
tp3486
Rp3487
ag1
(g5
S'\xb7\x13F?'
p3488
tp3489
Rp3490
ag1
(g5
S'?\xdbE?'
p3491
tp3492
Rp3493
ag1
(g5
S"'\xadE?"
p3494
tp3495
Rp3496
ag1
(g5
S'\xb2\xe7E?'
p3497
tp3498
Rp3499
ag1
(g5
S'\x07\x15F?'
p3500
tp3501
Rp3502
ag1
(g5
S'+\x13F?'
p3503
tp3504
Rp3505
ag1
(g5
S'K\xf2E?'
p3506
tp3507
Rp3508
ag1
(g5
S'{\x14F?'
p3509
tp3510
Rp3511
ag1
(g5
S'\xea!F?'
p3512
tp3513
Rp3514
ag1
(g5
S'\xfb7F?'
p3515
tp3516
Rp3517
ag1
(g5
S'\x01\x03F?'
p3518
tp3519
Rp3520
ag1
(g5
S'\xd2-F?'
p3521
tp3522
Rp3523
ag1
(g5
S'J\xffE?'
p3524
tp3525
Rp3526
ag1
(g5
S'\xf3\x12F?'
p3527
tp3528
Rp3529
ag1
(g5
S'N\xdeE?'
p3530
tp3531
Rp3532
ag1
(g5
S'\xb2.F?'
p3533
tp3534
Rp3535
ag1
(g5
S'm\xf7E?'
p3536
tp3537
Rp3538
ag1
(g5
S'L\x05F?'
p3539
tp3540
Rp3541
ag1
(g5
S'90F?'
p3542
tp3543
Rp3544
ag1
(g5
S'\x1b\xfdE?'
p3545
tp3546
Rp3547
ag1
(g5
S'p\x10F?'
p3548
tp3549
Rp3550
ag1
(g5
S'\xb8\x06F?'
p3551
tp3552
Rp3553
ag1
(g5
S'\xc5\x03F?'
p3554
tp3555
Rp3556
ag1
(g5
S'[\x15F?'
p3557
tp3558
Rp3559
ag1
(g5
S'G F?'
p3560
tp3561
Rp3562
ag1
(g5
S'\xfd0F?'
p3563
tp3564
Rp3565
ag1
(g5
S'\x0b\x14F?'
p3566
tp3567
Rp3568
ag1
(g5
S'\x88\x04F?'
p3569
tp3570
Rp3571
ag1
(g5
S'_\x07F?'
p3572
tp3573
Rp3574
ag1
(g5
S'\xac\x1cF?'
p3575
tp3576
Rp3577
ag1
(g5
S'\x87XF?'
p3578
tp3579
Rp3580
ag1
(g5
S'\xe8\x1bF?'
p3581
tp3582
Rp3583
ag1
(g5
S'\x17\xf1E?'
p3584
tp3585
Rp3586
ag1
(g5
S'\x97\x14F?'
p3587
tp3588
Rp3589
ag1
(g5
S'\x9c\xf9E?'
p3590
tp3591
Rp3592
ag1
(g5
S'r\x16F?'
p3593
tp3594
Rp3595
ag1
(g5
S'\x13\x1fF?'
p3596
tp3597
Rp3598
ag1
(g5
S'~\x00F?'
p3599
tp3600
Rp3601
ag1
(g5
S'\xbf\x1eF?'
p3602
tp3603
Rp3604
ag1
(g5
S'L\x05F?'
p3605
tp3606
Rp3607
ag1
(g5
S'T\xd6E?'
p3608
tp3609
Rp3610
ag1
(g5
S'2\x0bF?'
p3611
tp3612
Rp3613
ag1
(g5
S'\x935F?'
p3614
tp3615
Rp3616
ag1
(g5
S'\xad\x0fF?'
p3617
tp3618
Rp3619
ag1
(g5
S'\x92"F?'
p3620
tp3621
Rp3622
ag1
(g5
S'\xf42F?'
p3623
tp3624
Rp3625
ag1
(g5
S'\xe3\tF?'
p3626
tp3627
Rp3628
ag1
(g5
S'm\xeaE?'
p3629
tp3630
Rp3631
ag1
(g5
S'P\xe4E?'
p3632
tp3633
Rp3634
ag1
(g5
S'g,F?'
p3635
tp3636
Rp3637
ag1
(g5
S'\xca\xf5E?'
p3638
tp3639
Rp3640
ag1
(g5
S'\xc8\xefE?'
p3641
tp3642
Rp3643
ag1
(g5
S'6\nF?'
p3644
tp3645
Rp3646
ag1
(g5
S'\xc5\x03F?'
p3647
tp3648
Rp3649
ag1
(g5
S'V\xe9E?'
p3650
tp3651
Rp3652
ag1
(g5
S'\xf5\xb1E?'
p3653
tp3654
Rp3655
ag1
(g5
S'\xc1$F?'
p3656
tp3657
Rp3658
ag1
(g5
S'@(F?'
p3659
tp3660
Rp3661
ag1
(g5
S'\x8b*F?'
p3662
tp3663
Rp3664
ag1
(g5
S'7*F?'
p3665
tp3666
Rp3667
ag1
(g5
S'\xff)F?'
p3668
tp3669
Rp3670
ag1
(g5
S'_\x07F?'
p3671
tp3672
Rp3673
ag1
(g5
S'c\xe6E?'
p3674
tp3675
Rp3676
ag1
(g5
S'\x93\x15F?'
p3677
tp3678
Rp3679
ag1
(g5
S's6F?'
p3680
tp3681
Rp3682
ag1
(g5
S'\x97\x14F?'
p3683
tp3684
Rp3685
ag1
(g5
S'\\(F?'
p3686
tp3687
Rp3688
ag1
(g5
S'\xed\x1aF?'
p3689
tp3690
Rp3691
ag1
(g5
S'\x1e\xe9E?'
p3692
tp3693
Rp3694
ag1
(g5
S'\x11\x19F?'
p3695
tp3696
Rp3697
ag1
(g5
S'\x9f\xf2E?'
p3698
tp3699
Rp3700
ag1
(g5
S'\x16\xdeE?'
p3701
tp3702
Rp3703
ag1
(g5
S'\xca\xf5E?'
p3704
tp3705
Rp3706
ag1
(g5
S'G F?'
p3707
tp3708
Rp3709
ag1
(g5
S'\x8a\nF?'
p3710
tp3711
Rp3712
ag1
(g5
S'\x86\x0bF?'
p3713
tp3714
Rp3715
ag1
(g5
S'\x8b\xf0E?'
p3716
tp3717
Rp3718
ag1
(g5
S'\xbe\x0bF?'
p3719
tp3720
Rp3721
ag1
(g5
S'90F?'
p3722
tp3723
Rp3724
ag1
(g5
S'\xcd\x0eF?'
p3725
tp3726
Rp3727
ag1
(g5
S'(\x07F?'
p3728
tp3729
Rp3730
ag1
(g5
S'\xb7\xd9E?'
p3731
tp3732
Rp3733
ag1
(g5
S'e\x19F?'
p3734
tp3735
Rp3736
ag1
(g5
S'\xdd1F?'
p3737
tp3738
Rp3739
ag1
(g5
S'\xf4\xcbE?'
p3740
tp3741
Rp3742
ag1
(g5
S'\xb7\x13F?'
p3743
tp3744
Rp3745
ag1
(g5
S'{\x07F?'
p3746
tp3747
Rp3748
ag1
(g5
S'77F?'
p3749
tp3750
Rp3751
ag1
(g5
S'$5F?'
p3752
tp3753
Rp3754
ag1
(g5
S'\xcc\x1bF?'
p3755
tp3756
Rp3757
ag1
(g5
S'\r\x1aF?'
p3758
tp3759
Rp3760
ag1
(g5
S'\x8a\x17F?'
p3761
tp3762
Rp3763
ag1
(g5
S'\xbb\x1fF?'
p3764
tp3765
Rp3766
ag1
(g5
S'P>F?'
p3767
tp3768
Rp3769
ag1
(g5
S"'AF?"
p3770
tp3771
Rp3772
ag1
(g5
S'Z"F?'
p3773
tp3774
Rp3775
ag1
(g5
S'\xdd1F?'
p3776
tp3777
Rp3778
ag1
(g5
S'\xa5\xeaE?'
p3779
tp3780
Rp3781
ag1
(g5
S'=IF?'
p3782
tp3783
Rp3784
ag1
(g5
S'\xf4\x05F?'
p3785
tp3786
Rp3787
ag1
(g5
S'c F?'
p3788
tp3789
Rp3790
ag1
(g5
S'~\xf3E?'
p3791
tp3792
Rp3793
ag1
(g5
S'q0F?'
p3794
tp3795
Rp3796
ag1
(g5
S'\x87+F?'
p3797
tp3798
Rp3799
ag1
(g5
S'\x97\x14F?'
p3800
tp3801
Rp3802
ag1
(g5
S'\x80@F?'
p3803
tp3804
Rp3805
ag1
(g5
S'\xc0\x11F?'
p3806
tp3807
Rp3808
ag1
(g5
S'X\x1cF?'
p3809
tp3810
Rp3811
ag1
(g5
S'\x7f\xe6E?'
p3812
tp3813
Rp3814
ag1
(g5
S'\xdf7F?'
p3815
tp3816
Rp3817
ag1
(g5
S'v/F?'
p3818
tp3819
Rp3820
ag1
(g5
S'\x19\x04F?'
p3821
tp3822
Rp3823
ag1
(g5
S'\xf1\x19F?'
p3824
tp3825
Rp3826
ag1
(g5
S'\x191F?'
p3827
tp3828
Rp3829
ag1
(g5
S'\xa5\xcaE?'
p3830
tp3831
Rp3832
ag1
(g5
S')\xedE?'
p3833
tp3834
Rp3835
ag1
(g5
S'\xab\xfcE?'
p3836
tp3837
Rp3838
ag1
(g5
S'H\x06F?'
p3839
tp3840
Rp3841
ag1
(g5
S'\xc9<F?'
p3842
tp3843
Rp3844
ag1
(g5
S'\xe8\xeeE?'
p3845
tp3846
Rp3847
ag1
(g5
S'c F?'
p3848
tp3849
Rp3850
ag1
(g5
S'\xa3\xf1E?'
p3851
tp3852
Rp3853
ag1
(g5
S'\x85\xebE?'
p3854
tp3855
Rp3856
ag1
(g5
S"\x98'F?"
p3857
tp3858
Rp3859
ag1
(g5
S'\xee\xf3E?'
p3860
tp3861
Rp3862
ag1
(g5
S'\xf9\xf7E?'
p3863
tp3864
Rp3865
ag1
(g5
S'\xca\xe8E?'
p3866
tp3867
Rp3868
ag1
(g5
S'\x9d\x19F?'
p3869
tp3870
Rp3871
ag1
(g5
S'|\xedE?'
p3872
tp3873
Rp3874
ag1
(g5
S'\xc8\xefE?'
p3875
tp3876
Rp3877
ag1
(g5
S'>/F?'
p3878
tp3879
Rp3880
ag1
(g5
S'\xf8\x04F?'
p3881
tp3882
Rp3883
ag1
(g5
S'.\xffE?'
p3884
tp3885
Rp3886
ag1
(g5
S'0\x05F?'
p3887
tp3888
Rp3889
ag1
(g5
S'\xcd;F?'
p3890
tp3891
Rp3892
ag1
(g5
S'RDF?'
p3893
tp3894
Rp3895
ag1
(g5
S'\xa0\x05F?'
p3896
tp3897
Rp3898
ag1
(g5
S'f\x0cF?'
p3899
tp3900
Rp3901
ag1
(g5
S'\\\xfbE?'
p3902
tp3903
Rp3904
ag1
(g5
S'Y\x0fF?'
p3905
tp3906
Rp3907
ag1
(g5
S'i%F?'
p3908
tp3909
Rp3910
ag1
(g5
S'\xae\xf5E?'
p3911
tp3912
Rp3913
ag1
(g5
S'\x1aDF?'
p3914
tp3915
Rp3916
ag1
(g5
S'7*F?'
p3917
tp3918
Rp3919
ag1
(g5
S'\xc5\x03F?'
p3920
tp3921
Rp3922
ag1
(g5
S'F-F?'
p3923
tp3924
Rp3925
ag1
(g5
S'G F?'
p3926
tp3927
Rp3928
ag1
(g5
S'\xb44F?'
p3929
tp3930
Rp3931
ag1
(g5
S'Z\\F?'
p3932
tp3933
Rp3934
ag1
(g5
S'\xe2#F?'
p3935
tp3936
Rp3937
ag1
(g5
S'\x03\xfcE?'
p3938
tp3939
Rp3940
ag1
(g5
S'X)F?'
p3941
tp3942
Rp3943
ag1
(g5
S'\xa8\x1dF?'
p3944
tp3945
Rp3946
ag1
(g5
S'\xd2\xf3E?'
p3947
tp3948
Rp3949
ag1
(g5
S'Z/F?'
p3950
tp3951
Rp3952
ag1
(g5
S'J\xffE?'
p3953
tp3954
Rp3955
ag1
(g5
S'\x93\x08F?'
p3956
tp3957
Rp3958
ag1
(g5
S'\x04\x1cF?'
p3959
tp3960
Rp3961
ag1
(g5
S'&!F?'
p3962
tp3963
Rp3964
ag1
(g5
S'\x85\xebE?'
p3965
tp3966
Rp3967
ag1
(g5
S'\xa1%F?'
p3968
tp3969
Rp3970
ag1
(g5
S't)F?'
p3971
tp3972
Rp3973
ag1
(g5
S'\x19^F?'
p3974
tp3975
Rp3976
ag1
(g5
S'x\x1bF?'
p3977
tp3978
Rp3979
ag1
(g5
S'\xcc\x1bF?'
p3980
tp3981
Rp3982
ag1
(g5
S'n\x17F?'
p3983
tp3984
Rp3985
ag1
(g5
S'\xee-F?'
p3986
tp3987
Rp3988
ag1
(g5
S'%\x0eF?'
p3989
tp3990
Rp3991
ag1
(g5
S'\x01\x03F?'
p3992
tp3993
Rp3994
ag1
(g5
S'V#F?'
p3995
tp3996
Rp3997
ag1
(g5
S'\x99\rF?'
p3998
tp3999
Rp4000
ag1
(g5
S'\xe5\x02F?'
p4001
tp4002
Rp4003
ag1
(g5
S'!\x0fF?'
p4004
tp4005
Rp4006
ag1
(g5
S'\xea\xf4E?'
p4007
tp4008
Rp4009
ag1
(g5
S'\xcc\xeeE?'
p4010
tp4011
Rp4012
ag1
(g5
S'\xf2,F?'
p4013
tp4014
Rp4015
ag1
(g5
S'G\x13F?'
p4016
tp4017
Rp4018
ag1
(g5
S'N\x0bF?'
p4019
tp4020
Rp4021
ag1
(g5
S'\xb1HF?'
p4022
tp4023
Rp4024
ag1
(g5
S'&!F?'
p4025
tp4026
Rp4027
ag1
(g5
S'\x8aDF?'
p4028
tp4029
Rp4030
ag1
(g5
S'\xff)F?'
p4031
tp4032
Rp4033
ag1
(g5
S'\xec\xfaE?'
p4034
tp4035
Rp4036
ag1
(g5
S'\xa8\xd6E?'
p4037
tp4038
Rp4039
ag1
(g5
S'1%F?'
p4040
tp4041
Rp4042
ag1
(g5
S'\xe2\xe9E?'
p4043
tp4044
Rp4045
ag1
(g5
S'\xfaQF?'
p4046
tp4047
Rp4048
ag1
(g5
S'=\x02F?'
p4049
tp4050
Rp4051
ag1
(g5
S'\x93BF?'
p4052
tp4053
Rp4054
ag1
(g5
S'\xd8\x05F?'
p4055
tp4056
Rp4057
ag1
(g5
S'\xe0JF?'
p4058
tp4059
Rp4060
ag1
(g5
S'\xa0\x12F?'
p4061
tp4062
Rp4063
ag1
(g5
S'\xcc\x1bF?'
p4064
tp4065
Rp4066
ag1
(g5
S'\xed\x1aF?'
p4067
tp4068
Rp4069
ag1
(g5
S']\xe1E?'
p4070
tp4071
Rp4072
ag1
(g5
S'g\x1fF?'
p4073
tp4074
Rp4075
ag1
(g5
S'\xb8\xf9E?'
p4076
tp4077
Rp4078
ag1
(g5
S'\xe8(F?'
p4079
tp4080
Rp4081
ag1
(g5
S'(\x07F?'
p4082
tp4083
Rp4084
ag1
(g5
S'\xe4IF?'
p4085
tp4086
Rp4087
ag1
(g5
S'n\nF?'
p4088
tp4089
Rp4090
ag1
(g5
S'|\xc0E?'
p4091
tp4092
Rp4093
ag1
(g5
S'\xb83F?'
p4094
tp4095
Rp4096
ag1
(g5
S' )F?'
p4097
tp4098
Rp4099
ag1
(g5
S'\xf42F?'
p4100
tp4101
Rp4102
ag1
(g5
S'\xc1\xeaE?'
p4103
tp4104
Rp4105
ag1
(g5
S'\x16\x0bF?'
p4106
tp4107
Rp4108
ag1
(g5
S"\x0c'F?"
p4109
tp4110
Rp4111
ag1
(g5
S'\x1a\x17F?'
p4112
tp4113
Rp4114
ag1
(g5
S'\xc3*F?'
p4115
tp4116
Rp4117
ag1
(g5
S'#\x08F?'
p4118
tp4119
Rp4120
ag1
(g5
S'\xe2\x16F?'
p4121
tp4122
Rp4123
ag1
(g5
S'\xd3@F?'
p4124
tp4125
Rp4126
ag1
(g5
S'\xd82F?'
p4127
tp4128
Rp4129
ag1
(g5
S'\xbc?F?'
p4130
tp4131
Rp4132
ag1
(g5
S'\x02\x16F?'
p4133
tp4134
Rp4135
ag1
(g5
S'r#F?'
p4136
tp4137
Rp4138
ag1
(g5
S'z!F?'
p4139
tp4140
Rp4141
ag1
(g5
S'\xee\xf3E?'
p4142
tp4143
Rp4144
ag1
(g5
S'cZF?'
p4145
tp4146
Rp4147
ag1
(g5
S'"\\F?'
p4148
tp4149
Rp4150
ag1
(g5
S'vOF?'
p4151
tp4152
Rp4153
ag1
(g5
S'\t;F?'
p4154
tp4155
Rp4156
ag1
(g5
S'GMF?'
p4157
tp4158
Rp4159
ag1
(g5
S'5$F?'
p4160
tp4161
Rp4162
ag1
(g5
S'\x18\x11F?'
p4163
tp4164
Rp4165
ag1
(g5
S'\xcc\x1bF?'
p4166
tp4167
Rp4168
ag1
(g5
S'K,F?'
p4169
tp4170
Rp4171
ag1
(g5
S'\xb83F?'
p4172
tp4173
Rp4174
ag1
(g5
S'\x06/F?'
p4175
tp4176
Rp4177
ag1
(g5
S'\xb3\x14F?'
p4178
tp4179
Rp4180
ag1
(g5
S'>\xe8E?'
p4181
tp4182
Rp4183
ag1
(g5
S'\xa3\x1eF?'
p4184
tp4185
Rp4186
ag1
(g5
S'A\x1bF?'
p4187
tp4188
Rp4189
ag1
(g5
S'i%F?'
p4190
tp4191
Rp4192
ag1
(g5
S'\xa3\x1eF?'
p4193
tp4194
Rp4195
ag1
(g5
S'I\x19F?'
p4196
tp4197
Rp4198
ag1
(g5
S'\t\x0eF?'
p4199
tp4200
Rp4201
ag1
(g5
S'\xe10F?'
p4202
tp4203
Rp4204
ag1
(g5
S'\xb6-F?'
p4205
tp4206
Rp4207
ag1
(g5
S'd\xf9E?'
p4208
tp4209
Rp4210
ag1
(g5
S'\x9a:F?'
p4211
tp4212
Rp4213
ag1
(g5
S"'\x14F?"
p4214
tp4215
Rp4216
ag1
(g5
S'b\xd3E?'
p4217
tp4218
Rp4219
ag1
(g5
S'\xdf*F?'
p4220
tp4221
Rp4222
ag1
(g5
S'\xd43F?'
p4223
tp4224
Rp4225
ag1
(g5
S'\xc0>F?'
p4226
tp4227
Rp4228
ag1
(g5
S'b\xf3E?'
p4229
tp4230
Rp4231
ag1
(g5
S'\xba9F?'
p4232
tp4233
Rp4234
ag1
(g5
S'[BF?'
p4235
tp4236
Rp4237
ag1
(g5
S'>OF?'
p4238
tp4239
Rp4240
ag1
(g5
S'N\xd1E?'
p4241
tp4242
Rp4243
ag1
(g5
S'\x13YF?'
p4244
tp4245
Rp4246
ag1
(g5
S'\xa3+F?'
p4247
tp4248
Rp4249
ag1
(g5
S'\xb1;F?'
p4250
tp4251
Rp4252
ag1
(g5
S'\xb4\xedE?'
p4253
tp4254
Rp4255
ag1
(g5
S'L\x12F?'
p4256
tp4257
Rp4258
ag1
(g5
S'\xbc\xcbE?'
p4259
tp4260
Rp4261
ag1
(g5
S'\x8f\tF?'
p4262
tp4263
Rp4264
ag1
(g5
S'\xbf+F?'
p4265
tp4266
Rp4267
ag1
(g5
S'w\x08F?'
p4268
tp4269
Rp4270
ag1
(g5
S'T\x1dF?'
p4271
tp4272
Rp4273
ag1
(g5
S'5\x04F?'
p4274
tp4275
Rp4276
ag1
(g5
S'\xa51F?'
p4277
tp4278
Rp4279
ag1
(g5
S'\xf6\xfeE?'
p4280
tp4281
Rp4282
ag1
(g5
S'3\xc4E?'
p4283
tp4284
Rp4285
ag1
(g5
S"'\x14F?"
p4286
tp4287
Rp4288
ag1
(g5
S'\xce.F?'
p4289
tp4290
Rp4291
ag1
(g5
S'o7F?'
p4292
tp4293
Rp4294
ag1
(g5
S'\xe3\tF?'
p4295
tp4296
Rp4297
ag1
(g5
S"('F?"
p4298
tp4299
Rp4300
ag1
(g5
S'\xb7 F?'
p4301
tp4302
Rp4303
ag1
(g5
S'AHF?'
p4304
tp4305
Rp4306
ag1
(g5
S' \x1cF?'
p4307
tp4308
Rp4309
ag1
(g5
S'\xb5\xd3E?'
p4310
tp4311
Rp4312
ag1
(g5
S'\x06"F?'
p4313
tp4314
Rp4315
ag1
(g5
S'X\xefE?'
p4316
tp4317
Rp4318
ag1
(g5
S'-\x19F?'
p4319
tp4320
Rp4321
ag1
(g5
S'\xab6F?'
p4322
tp4323
Rp4324
ag1
(g5
S'\x86\xdeE?'
p4325
tp4326
Rp4327
ag1
(g5
S'\r\rF?'
p4328
tp4329
Rp4330
ag1
(g5
S'\xcf\xdaE?'
p4331
tp4332
Rp4333
ag1
(g5
S'vOF?'
p4334
tp4335
Rp4336
ag1
(g5
S'\x0bNF?'
p4337
tp4338
Rp4339
ag1
(g5
S'\xd2-F?'
p4340
tp4341
Rp4342
ag1
(g5
S'6QF?'
p4343
tp4344
Rp4345
ag1
(g5
S'\x02PF?'
p4346
tp4347
Rp4348
ag1
(g5
S'&\xf4E?'
p4349
tp4350
Rp4351
ag1
(g5
S'w5F?'
p4352
tp4353
Rp4354
ag1
(g5
S'\xd43F?'
p4355
tp4356
Rp4357
ag1
(g5
S'\x1f6F?'
p4358
tp4359
Rp4360
ag1
(g5
S'\xff)F?'
p4361
tp4362
Rp4363
ag1
(g5
S'\x88KF?'
p4364
tp4365
Rp4366
ag1
(g5
S'\x9b\xd9E?'
p4367
tp4368
Rp4369
ag1
(g5
S'!<F?'
p4370
tp4371
Rp4372
ag1
(g5
S'm1F?'
p4373
tp4374
Rp4375
ag1
(g5
S"\x0c'F?"
p4376
tp4377
Rp4378
ag1
(g5
S'4\x11F?'
p4379
tp4380
Rp4381
ag1
(g5
S'F-F?'
p4382
tp4383
Rp4384
ag1
(g5
S'\xdeQF?'
p4385
tp4386
Rp4387
ag1
(g5
S'\x93BF?'
p4388
tp4389
Rp4390
ag1
(g5
S'z.F?'
p4391
tp4392
Rp4393
ag1
(g5
S'\x8c\x10F?'
p4394
tp4395
Rp4396
ag1
(g5
S'\xf2,F?'
p4397
tp4398
Rp4399
ag1
(g5
S'tVF?'
p4400
tp4401
Rp4402
ag1
(g5
S'\xeeZF?'
p4403
tp4404
Rp4405
ag1
(g5
S'\x1a\x17F?'
p4406
tp4407
Rp4408
ag1
(g5
S'e&F?'
p4409
tp4410
Rp4411
ag1
(g5
S'\xdf7F?'
p4412
tp4413
Rp4414
ag1
(g5
S'\x1b7F?'
p4415
tp4416
Rp4417
ag1
(g5
S')TF?'
p4418
tp4419
Rp4420
ag1
(g5
S'\xee:F?'
p4421
tp4422
Rp4423
ag1
(g5
S'CNF?'
p4424
tp4425
Rp4426
ag1
(g5
S'*-F?'
p4427
tp4428
Rp4429
ag1
(g5
S'\x9a\xb9E?'
p4430
tp4431
Rp4432
ag1
(g5
S'\x8fCF?'
p4433
tp4434
Rp4435
ag1
(g5
S'%HF?'
p4436
tp4437
Rp4438
ag1
(g5
S'GZF?'
p4439
tp4440
Rp4441
ag1
(g5
S'\xd8?F?'
p4442
tp4443
Rp4444
ag1
(g5
S'\xe0JF?'
p4445
tp4446
Rp4447
ag1
(g5
S'@UF?'
p4448
tp4449
Rp4450
ag1
(g5
S'S7F?'
p4451
tp4452
Rp4453
ag1
(g5
S')GF?'
p4454
tp4455
Rp4456
ag1
(g5
S'u<F?'
p4457
tp4458
Rp4459
ag1
(g5
S'\xb8@F?'
p4460
tp4461
Rp4462
ag1
(g5
S'\xdc>F?'
p4463
tp4464
Rp4465
ag1
(g5
S'Y<F?'
p4466
tp4467
Rp4468
ag1
(g5
S'\x03\tF?'
p4469
tp4470
Rp4471
ag1
(g5
S'\xb5GF?'
p4472
tp4473
Rp4474
ag1
(g5
S'\xa4>F?'
p4475
tp4476
Rp4477
ag1
(g5
S'_AF?'
p4478
tp4479
Rp4480
ag1
(g5
S'%\x0eF?'
p4481
tp4482
Rp4483
ag1
(g5
S'\x8c\x1dF?'
p4484
tp4485
Rp4486
ag1
(g5
S"|'F?"
p4487
tp4488
Rp4489
ag1
(g5
S'TJF?'
p4490
tp4491
Rp4492
ag1
(g5
S'\xf6EF?'
p4493
tp4494
Rp4495
ag1
(g5
S'r#F?'
p4496
tp4497
Rp4498
ag1
(g5
S'\x88>F?'
p4499
tp4500
Rp4501
ag1
(g5
S'\x0caF?'
p4502
tp4503
Rp4504
ag1
(g5
S'N8F?'
p4505
tp4506
Rp4507
ag1
(g5
S'7*F?'
p4508
tp4509
Rp4510
ag1
(g5
S'$\xfbE?'
p4511
tp4512
Rp4513
ag1
(g5
S'\xdf\xf0E?'
p4514
tp4515
Rp4516
ag1
(g5
S'-SF?'
p4517
tp4518
Rp4519
ag1
(g5
S'\xea.F?'
p4520
tp4521
Rp4522
ag1
(g5
S'\xb1;F?'
p4523
tp4524
Rp4525
ag1
(g5
S'"/F?'
p4526
tp4527
Rp4528
ag1
(g5
S'7\xfdE?'
p4529
tp4530
Rp4531
ag1
(g5
S'\xc9/F?'
p4532
tp4533
Rp4534
ag1
(g5
S'\x8b*F?'
p4535
tp4536
Rp4537
ag1
(g5
S'\xafBF?'
p4538
tp4539
Rp4540
ag1
(g5
S'\x00JF?'
p4541
tp4542
Rp4543
ag1
(g5
S'\x0f F?'
p4544
tp4545
Rp4546
ag1
(g5
S'\x00WF?'
p4547
tp4548
Rp4549
ag1
(g5
S'\xd1TF?'
p4550
tp4551
Rp4552
ag1
(g5
S'&\xbaE?'
p4553
tp4554
Rp4555
ag1
(g5
S'nQF?'
p4556
tp4557
Rp4558
ag1
(g5
S'\x02\x16F?'
p4559
tp4560
Rp4561
ag1
(g5
S'}\x1aF?'
p4562
tp4563
Rp4564
ag1
(g5
S'Y<F?'
p4565
tp4566
Rp4567
ag1
(g5
S'\xdc>F?'
p4568
tp4569
Rp4570
ag1
(g5
S'\xc5=F?'
p4571
tp4572
Rp4573
ag1
(g5
S'0\x12F?'
p4574
tp4575
Rp4576
ag1
(g5
S'm$F?'
p4577
tp4578
Rp4579
ag1
(g5
S',3F?'
p4580
tp4581
Rp4582
ag1
(g5
S'\x9a-F?'
p4583
tp4584
Rp4585
ag1
(g5
S'\x95;F?'
p4586
tp4587
Rp4588
ag1
(g5
S'\x0caF?'
p4589
tp4590
Rp4591
ag1
(g5
S',3F?'
p4592
tp4593
Rp4594
ag1
(g5
S'\xff6F?'
p4595
tp4596
Rp4597
ag1
(g5
S'\xe7BF?'
p4598
tp4599
Rp4600
ag1
(g5
S't\x1cF?'
p4601
tp4602
Rp4603
ag1
(g5
S'\x95HF?'
p4604
tp4605
Rp4606
ag1
(g5
S'U=F?'
p4607
tp4608
Rp4609
ag1
(g5
S'\xc0\xd7E?'
p4610
tp4611
Rp4612
ag1
(g5
S'\xdd^F?'
p4613
tp4614
Rp4615
ag1
(g5
S'\xa8WF?'
p4616
tp4617
Rp4618
ag1
(g5
S'o7F?'
p4619
tp4620
Rp4621
ag1
(g5
S'\xaa#F?'
p4622
tp4623
Rp4624
ag1
(g5
S'R~F?'
p4625
tp4626
Rp4627
ag1
(g5
S'4>F?'
p4628
tp4629
Rp4630
ag1
(g5
S"'NF?"
p4631
tp4632
Rp4633
ag1
(g5
S'\x152F?'
p4634
tp4635
Rp4636
ag1
(g5
S'M2F?'
p4637
tp4638
Rp4639
ag1
(g5
S'\xeeZF?'
p4640
tp4641
Rp4642
ag1
(g5
S'\x0bNF?'
p4643
tp4644
Rp4645
ag1
(g5
S'\x0caF?'
p4646
tp4647
Rp4648
ag1
(g5
S'\x91\x0fF?'
p4649
tp4650
Rp4651
ag1
(g5
S'Q1F?'
p4652
tp4653
Rp4654
ag1
(g5
S'\n\x01F?'
p4655
tp4656
Rp4657
ag1
(g5
S'\x129F?'
p4658
tp4659
Rp4660
ag1
(g5
S'=IF?'
p4661
tp4662
Rp4663
ag1
(g5
S'\xb9SF?'
p4664
tp4665
Rp4666
ag1
(g5
S'\xd82F?'
p4667
tp4668
Rp4669
ag1
(g5
S'\xa9=F?'
p4670
tp4671
Rp4672
ag1
(g5
S'\x1a~F?'
p4673
tp4674
Rp4675
ag1
(g5
S'\x13YF?'
p4676
tp4677
Rp4678
ag1
(g5
S'>\\F?'
p4679
tp4680
Rp4681
ag1
(g5
S'\x90VF?'
p4682
tp4683
Rp4684
ag1
(g5
S'\rTF?'
p4685
tp4686
Rp4687
ag1
(g5
S'\xf91F?'
p4688
tp4689
Rp4690
ag1
(g5
S'\xf5\xdeE?'
p4691
tp4692
Rp4693
ag1
(g5
S'aGF?'
p4694
tp4695
Rp4696
ag1
(g5
S'~-F?'
p4697
tp4698
Rp4699
ag1
(g5
S'7qF?'
p4700
tp4701
Rp4702
ag1
(g5
S'\xedGF?'
p4703
tp4704
Rp4705
ag1
(g5
S'\xecaF?'
p4706
tp4707
Rp4708
ag1
(g5
S'NrF?'
p4709
tp4710
Rp4711
ag1
(g5
S'WCF?'
p4712
tp4713
Rp4714
ag1
(g5
S'\xb1\x0eF?'
p4715
tp4716
Rp4717
ag1
(g5
S"\x0c'F?"
p4718
tp4719
Rp4720
ag1
(g5
S'\xc9<F?'
p4721
tp4722
Rp4723
ag1
(g5
S'\xa77F?'
p4724
tp4725
Rp4726
ag1
(g5
S'90F?'
p4727
tp4728
Rp4729
ag1
(g5
S'#BF?'
p4730
tp4731
Rp4732
ag1
(g5
S'\xc8IF?'
p4733
tp4734
Rp4735
ag1
(g5
S'\xd2gF?'
p4736
tp4737
Rp4738
ag1
(g5
S'\xef F?'
p4739
tp4740
Rp4741
ag1
(g5
S'\x1b7F?'
p4742
tp4743
Rp4744
ag1
(g5
S'\x1f6F?'
p4745
tp4746
Rp4747
ag1
(g5
S'\x1cWF?'
p4748
tp4749
Rp4750
ag1
(g5
S'\xba\x0cF?'
p4751
tp4752
Rp4753
ag1
(g5
S'\xd04F?'
p4754
tp4755
Rp4756
ag1
(g5
S'{AF?'
p4757
tp4758
Rp4759
ag1
(g5
S'd3F?'
p4760
tp4761
Rp4762
ag1
(g5
S'RDF?'
p4763
tp4764
Rp4765
ag1
(g5
S'BhF?'
p4766
tp4767
Rp4768
ag1
(g5
S'\xf91F?'
p4769
tp4770
Rp4771
ag1
(g5
S'90F?'
p4772
tp4773
Rp4774
ag1
(g5
S'<)F?'
p4775
tp4776
Rp4777
ag1
(g5
S'\xb1;F?'
p4778
tp4779
Rp4780
ag1
(g5
S'\x02PF?'
p4781
tp4782
Rp4783
ag1
(g5
S'\x80@F?'
p4784
tp4785
Rp4786
ag1
(g5
S'\x9d&F?'
p4787
tp4788
Rp4789
ag1
(g5
S'\xc11F?'
p4790
tp4791
Rp4792
ag1
(g5
S'?oF?'
p4793
tp4794
Rp4795
ag1
(g5
S'];F?'
p4796
tp4797
Rp4798
ag1
(g5
S'\xb2!F?'
p4799
tp4800
Rp4801
ag1
(g5
S'o7F?'
p4802
tp4803
Rp4804
ag1
(g5
S'\xacIF?'
p4805
tp4806
Rp4807
ag1
(g5
S'\xf5\x18F?'
p4808
tp4809
Rp4810
ag1
(g5
S'\xe3)F?'
p4811
tp4812
Rp4813
ag1
(g5
S'cMF?'
p4814
tp4815
Rp4816
ag1
(g5
S'\xf9$F?'
p4817
tp4818
Rp4819
ag1
(g5
S'\xa77F?'
p4820
tp4821
Rp4822
ag1
(g5
S'\xb3NF?'
p4823
tp4824
Rp4825
ag1
(g5
S'jrF?'
p4826
tp4827
Rp4828
ag1
(g5
S'\xd7YF?'
p4829
tp4830
Rp4831
ag1
(g5
S'\xc0\x85F?'
p4832
tp4833
Rp4834
ag1
(g5
S'\x05IF?'
p4835
tp4836
Rp4837
ag1
(g5
S'\xd4`F?'
p4838
tp4839
Rp4840
ag1
(g5
S'\x17+F?'
p4841
tp4842
Rp4843
ag1
(g5
S'\n.F?'
p4844
tp4845
Rp4846
ag1
(g5
S']uF?'
p4847
tp4848
Rp4849
ag1
(g5
S'\xa1_F?'
p4850
tp4851
Rp4852
ag1
(g5
S'\x96[F?'
p4853
tp4854
Rp4855
ag1
(g5
S'_AF?'
p4856
tp4857
Rp4858
ag1
(g5
S'\xf6EF?'
p4859
tp4860
Rp4861
ag1
(g5
S'WCF?'
p4862
tp4863
Rp4864
ag1
(g5
S'o7F?'
p4865
tp4866
Rp4867
ag1
(g5
S'\x97AF?'
p4868
tp4869
Rp4870
ag1
(g5
S'^hF?'
p4871
tp4872
Rp4873
ag1
(g5
S'\xee:F?'
p4874
tp4875
Rp4876
ag1
(g5
S'\xf6EF?'
p4877
tp4878
Rp4879
ag1
(g5
S'\xedGF?'
p4880
tp4881
Rp4882
ag1
(g5
S'\xee-F?'
p4883
tp4884
Rp4885
ag1
(g5
S'\\UF?'
p4886
tp4887
Rp4888
ag1
(g5
S'\xc5=F?'
p4889
tp4890
Rp4891
ag1
(g5
S'\xbd%F?'
p4892
tp4893
Rp4894
ag1
(g5
S'^hF?'
p4895
tp4896
Rp4897
ag1
(g5
S':PF?'
p4898
tp4899
Rp4900
ag1
(g5
S'_AF?'
p4901
tp4902
Rp4903
ag1
(g5
S'%;F?'
p4904
tp4905
Rp4906
ag1
(g5
S'\x1djF?'
p4907
tp4908
Rp4909
ag1
(g5
S'5^F?'
p4910
tp4911
Rp4912
ag1
(g5
S'\x13fF?'
p4913
tp4914
Rp4915
ag1
(g5
S'\xf29F?'
p4916
tp4917
Rp4918
ag1
(g5
S'\x1e#F?'
p4919
tp4920
Rp4921
ag1
(g5
S'\xbd\xf8E?'
p4922
tp4923
Rp4924
ag1
(g5
S'\x94UF?'
p4925
tp4926
Rp4927
ag1
(g5
S'W6F?'
p4928
tp4929
Rp4930
ag1
(g5
S']HF?'
p4931
tp4932
Rp4933
ag1
(g5
S'SqF?'
p4934
tp4935
Rp4936
ag1
(g5
S'1_F?'
p4937
tp4938
Rp4939
ag1
(g5
S'\xaa\xe9E?'
p4940
tp4941
Rp4942
ag1
(g5
S'B[F?'
p4943
tp4944
Rp4945
ag1
(g5
S'h2F?'
p4946
tp4947
Rp4948
ag1
(g5
S'\xa6DF?'
p4949
tp4950
Rp4951
ag1
(g5
S'\xf29F?'
p4952
tp4953
Rp4954
ag1
(g5
S'C\x07F?'
p4955
tp4956
Rp4957
ag1
(g5
S'\x0egF?'
p4958
tp4959
Rp4960
ag1
(g5
S'\x91/F?'
p4961
tp4962
Rp4963
ag1
(g5
S'6QF?'
p4964
tp4965
Rp4966
ag1
(g5
S'DaF?'
p4967
tp4968
Rp4969
ag1
(g5
S'\xfd]F?'
p4970
tp4971
Rp4972
ag1
(g5
S'd@F?'
p4973
tp4974
Rp4975
ag1
(g5
S'\xe3pF?'
p4976
tp4977
Rp4978
ag1
(g5
S'\xcb5F?'
p4979
tp4980
Rp4981
ag1
(g5
S'\xc9vF?'
p4982
tp4983
Rp4984
ag1
(g5
S'MRF?'
p4985
tp4986
Rp4987
ag1
(g5
S'\xc3dF?'
p4988
tp4989
Rp4990
ag1
(g5
S'\x0egF?'
p4991
tp4992
Rp4993
ag1
(g5
S'\x97AF?'
p4994
tp4995
Rp4996
ag1
(g5
S'\xd3MF?'
p4997
tp4998
Rp4999
ag1
(g5
S'\xc9/F?'
p5000
tp5001
Rp5002
ag1
(g5
S'A\x1bF?'
p5003
tp5004
Rp5005
ag1
(g5
S'\x02PF?'
p5006
tp5007
Rp5008
ag1
(g5
S'\x19$F?'
p5009
tp5010
Rp5011
ag1
(g5
S'\x04VF?'
p5012
tp5013
Rp5014
ag1
(g5
S'\x9fLF?'
p5015
tp5016
Rp5017
ag1
(g5
S'aTF?'
p5018
tp5019
Rp5020
ag1
(g5
S'\xf1FF?'
p5021
tp5022
Rp5023
ag1
(g5
S'\xd7\x86F?'
p5024
tp5025
Rp5026
ag1
(g5
S'\x8bdF?'
p5027
tp5028
Rp5029
ag1
(g5
S'\xd3 F?'
p5030
tp5031
Rp5032
ag1
(g5
S'\xb3{F?'
p5033
tp5034
Rp5035
ag1
(g5
S'b:F?'
p5036
tp5037
Rp5038
ag1
(g5
S'L?F?'
p5039
tp5040
Rp5041
ag1
(g5
S'\xf9\xb0E?'
p5042
tp5043
Rp5044
ag1
(g5
S'\xbfXF?'
p5045
tp5046
Rp5047
ag1
(g5
S'"OF?'
p5048
tp5049
Rp5050
ag1
(g5
S'\rGF?'
p5051
tp5052
Rp5053
ag1
(g5
S'<cF?'
p5054
tp5055
Rp5056
ag1
(g5
S'\x1b7F?'
p5057
tp5058
Rp5059
ag1
(g5
S'\x18>F?'
p5060
tp5061
Rp5062
ag1
(g5
S'\xa0\x05F?'
p5063
tp5064
Rp5065
ag1
(g5
S'\xa6QF?'
p5066
tp5067
Rp5068
ag1
(g5
S')GF?'
p5069
tp5070
Rp5071
ag1
(g5
S'\xa28F?'
p5072
tp5073
Rp5074
ag1
(g5
S',mF?'
p5075
tp5076
Rp5077
ag1
(g5
S'\x8fCF?'
p5078
tp5079
Rp5080
ag1
(g5
S'\x99TF?'
p5081
tp5082
Rp5083
ag1
(g5
S'\x05\x0fF?'
p5084
tp5085
Rp5086
ag1
(g5
S'PKF?'
p5087
tp5088
Rp5089
ag1
(g5
S'1RF?'
p5090
tp5091
Rp5092
ag1
(g5
S'\xebNF?'
p5093
tp5094
Rp5095
ag1
(g5
S'\x05iF?'
p5096
tp5097
Rp5098
ag1
(g5
S'\x803F?'
p5099
tp5100
Rp5101
ag1
(g5
S'\x8cJF?'
p5102
tp5103
Rp5104
ag1
(g5
S'\x842F?'
p5105
tp5106
Rp5107
ag1
(g5
S'tIF?'
p5108
tp5109
Rp5110
ag1
(g5
S'\x94bF?'
p5111
tp5112
Rp5113
ag1
(g5
S'V]F?'
p5114
tp5115
Rp5116
ag1
(g5
S'\xb3AF?'
p5117
tp5118
Rp5119
ag1
(g5
S'\xf8>F?'
p5120
tp5121
Rp5122
ag1
(g5
S'?BF?'
p5123
tp5124
Rp5125
ag1
(g5
S'\xfdjF?'
p5126
tp5127
Rp5128
ag1
(g5
S'4KF?'
p5129
tp5130
Rp5131
ag1
(g5
S'\x04\x83F?'
p5132
tp5133
Rp5134
ag1
(g5
S'2rF?'
p5135
tp5136
Rp5137
ag1
(g5
S'\x03pF?'
p5138
tp5139
Rp5140
ag1
(g5
S'P>F?'
p5141
tp5142
Rp5143
ag1
(g5
S'\x08UF?'
p5144
tp5145
Rp5146
ag1
(g5
S'\x15RF?'
p5147
tp5148
Rp5149
ag1
(g5
S'\x1f6F?'
p5150
tp5151
Rp5152
ag1
(g5
S'\x8d]F?'
p5153
tp5154
Rp5155
ag1
(g5
S'>\\F?'
p5156
tp5157
Rp5158
ag1
(g5
S'\x7f\x13F?'
p5159
tp5160
Rp5161
ag1
(g5
S'\x8djF?'
p5162
tp5163
Rp5164
ag1
(g5
S'\xb3\x07F?'
p5165
tp5166
Rp5167
ag1
(g5
S'\xbafF?'
p5168
tp5169
Rp5170
ag1
(g5
S'\x0e-F?'
p5171
tp5172
Rp5173
ag1
(g5
S'\xc2QF?'
p5174
tp5175
Rp5176
ag1
(g5
S'\xb7 F?'
p5177
tp5178
Rp5179
ag1
(g5
S'\xa6QF?'
p5180
tp5181
Rp5182
ag1
(g5
S'\xd4mF?'
p5183
tp5184
Rp5185
ag1
(g5
S'\xb4\x8eF?'
p5186
tp5187
Rp5188
ag1
(g5
S'\xf7\x92F?'
p5189
tp5190
Rp5191
ag1
(g5
S'\x94bF?'
p5192
tp5193
Rp5194
ag1
(g5
S'\xc0xF?'
p5195
tp5196
Rp5197
ag1
(g5
S'SdF?'
p5198
tp5199
Rp5200
ag1
(g5
S'U=F?'
p5201
tp5202
Rp5203
ag1
(g5
S'\xf7eF?'
p5204
tp5205
Rp5206
ag1
(g5
S'4\x85F?'
p5207
tp5208
Rp5209
ag1
(g5
S']uF?'
p5210
tp5211
Rp5212
ag1
(g5
S'\xdeQF?'
p5213
tp5214
Rp5215
ag1
(g5
S'YIF?'
p5216
tp5217
Rp5218
ag1
(g5
S'I`F?'
p5219
tp5220
Rp5221
ag1
(g5
S'\xb9&F?'
p5222
tp5223
Rp5224
ag1
(g5
S'\xd2gF?'
p5225
tp5226
Rp5227
ag1
(g5
S'VPF?'
p5228
tp5229
Rp5230
ag1
(g5
S'm^F?'
p5231
tp5232
Rp5233
ag1
(g5
S"'\x88F?"
p5234
tp5235
Rp5236
ag1
(g5
S'\xc50F?'
p5237
tp5238
Rp5239
ag1
(g5
S'\xef F?'
p5240
tp5241
Rp5242
ag1
(g5
S'\x13,F?'
p5243
tp5244
Rp5245
ag1
(g5
S'[BF?'
p5246
tp5247
Rp5248
ag1
(g5
S'\x1djF?'
p5249
tp5250
Rp5251
ag1
(g5
S'.FF?'
p5252
tp5253
Rp5254
ag1
(g5
S'\x1fCF?'
p5255
tp5256
Rp5257
ag1
(g5
S'\x9bMF?'
p5258
tp5259
Rp5260
ag1
(g5
S'tVF?'
p5261
tp5262
Rp5263
ag1
(g5
S'\xd3@F?'
p5264
tp5265
Rp5266
ag1
(g5
S'\x18>F?'
p5267
tp5268
Rp5269
ag1
(g5
S'\xcdHF?'
p5270
tp5271
Rp5272
ag1
(g5
S'\xdarF?'
p5273
tp5274
Rp5275
ag1
(g5
S'\x90\x90F?'
p5276
tp5277
Rp5278
ag1
(g5
S'\x9e9F?'
p5279
tp5280
Rp5281
ag1
(g5
S'/,F?'
p5282
tp5283
Rp5284
ag1
(g5
S'v\\F?'
p5285
tp5286
Rp5287
ag1
(g5
S'\x11`F?'
p5288
tp5289
Rp5290
ag1
(g5
S'\xa1\x8cF?'
p5291
tp5292
Rp5293
ag1
(g5
S'\xfdjF?'
p5294
tp5295
Rp5296
ag1
(g5
S'\x9esF?'
p5297
tp5298
Rp5299
ag1
(g5
S'\xc8\x83F?'
p5300
tp5301
Rp5302
ag1
(g5
S'/YF?'
p5303
tp5304
Rp5305
ag1
(g5
S'\x1c\x91F?'
p5306
tp5307
Rp5308
ag1
(g5
S'\xf2fF?'
p5309
tp5310
Rp5311
ag1
(g5
S'\xb1HF?'
p5312
tp5313
Rp5314
ag1
(g5
S'0?F?'
p5315
tp5316
Rp5317
ag1
(g5
S'\xdeDF?'
p5318
tp5319
Rp5320
ag1
(g5
S'\xeeZF?'
p5321
tp5322
Rp5323
ag1
(g5
S'N\x7fF?'
p5324
tp5325
Rp5326
ag1
(g5
S'\x89kF?'
p5327
tp5328
Rp5329
ag1
(g5
S'{NF?'
p5330
tp5331
Rp5332
ag1
(g5
S"'{F?"
p5333
tp5334
Rp5335
ag1
(g5
S'\x86rF?'
p5336
tp5337
Rp5338
ag1
(g5
S'\xf42F?'
p5339
tp5340
Rp5341
ag1
(g5
S'6QF?'
p5342
tp5343
Rp5344
ag1
(g5
S'\x07|F?'
p5345
tp5346
Rp5347
ag1
(g5
S'\xafoF?'
p5348
tp5349
Rp5350
ag1
(g5
S'\x81SF?'
p5351
tp5352
Rp5353
ag1
(g5
S'\x18xF?'
p5354
tp5355
Rp5356
ag1
(g5
S'h?F?'
p5357
tp5358
Rp5359
ag1
(g5
S'&hF?'
p5360
tp5361
Rp5362
ag1
(g5
S'\xbbYF?'
p5363
tp5364
Rp5365
ag1
(g5
S'\xecaF?'
p5366
tp5367
Rp5368
ag1
(g5
S'\x94\x8fF?'
p5369
tp5370
Rp5371
ag1
(g5
S'p\x10F?'
p5372
tp5373
Rp5374
ag1
(g5
S'\xdcxF?'
p5375
tp5376
Rp5377
ag1
(g5
S'\x0cnF?'
p5378
tp5379
Rp5380
ag1
(g5
S'\xf6rF?'
p5381
tp5382
Rp5383
ag1
(g5
S'hlF?'
p5384
tp5385
Rp5386
ag1
(g5
S'\xb2\x95F?'
p5387
tp5388
Rp5389
ag1
(g5
S'\xe5vF?'
p5390
tp5391
Rp5392
ag1
(g5
S'\xd3MF?'
p5393
tp5394
Rp5395
ag1
(g5
S'\x99tF?'
p5396
tp5397
Rp5398
ag1
(g5
S'\xdfWF?'
p5399
tp5400
Rp5401
ag1
(g5
S'\x07oF?'
p5402
tp5403
Rp5404
ag1
(g5
S'\xa02F?'
p5405
tp5406
Rp5407
ag1
(g5
S' VF?'
p5408
tp5409
Rp5410
ag1
(g5
S'\x80`F?'
p5411
tp5412
Rp5413
ag1
(g5
S'\xaf|F?'
p5414
tp5415
Rp5416
ag1
(g5
S'+MF?'
p5417
tp5418
Rp5419
ag1
(g5
S'\xadiF?'
p5420
tp5421
Rp5422
ag1
(g5
S'm^F?'
p5423
tp5424
Rp5425
ag1
(g5
S',zF?'
p5426
tp5427
Rp5428
ag1
(g5
S'\x10zF?'
p5429
tp5430
Rp5431
ag1
(g5
S'$bF?'
p5432
tp5433
Rp5434
ag1
(g5
S'#BF?'
p5435
tp5436
Rp5437
ag1
(g5
S'~\x94F?'
p5438
tp5439
Rp5440
ag1
(g5
S'pJF?'
p5441
tp5442
Rp5443
ag1
(g5
S'\x80mF?'
p5444
tp5445
Rp5446
ag1
(g5
S'\xd2gF?'
p5447
tp5448
Rp5449
ag1
(g5
S'?BF?'
p5450
tp5451
Rp5452
ag1
(g5
S'\x1dwF?'
p5453
tp5454
Rp5455
ag1
(g5
S'\xc76F?'
p5456
tp5457
Rp5458
ag1
(g5
S'=iF?'
p5459
tp5460
Rp5461
ag1
(g5
S'\x04VF?'
p5462
tp5463
Rp5464
ag1
(g5
S'\x02#F?'
p5465
tp5466
Rp5467
ag1
(g5
S'\xa1_F?'
p5468
tp5469
Rp5470
ag1
(g5
S'>\x89F?'
p5471
tp5472
Rp5473
ag1
(g5
S'\xad\x0fF?'
p5474
tp5475
Rp5476
ag1
(g5
S'\xc9<F?'
p5477
tp5478
Rp5479
ag1
(g5
S'\xd0aF?'
p5480
tp5481
Rp5482
ag1
(g5
S'\xaeOF?'
p5483
tp5484
Rp5485
ag1
(g5
S'\x1a~F?'
p5486
tp5487
Rp5488
ag1
(g5
S'scF?'
p5489
tp5490
Rp5491
ag1
(g5
S'\xad<F?'
p5492
tp5493
Rp5494
ag1
(g5
S'\xd6sF?'
p5495
tp5496
Rp5497
ag1
(g5
S'\x7fZF?'
p5498
tp5499
Rp5500
ag1
(g5
S'\x1ePF?'
p5501
tp5502
Rp5503
ag1
(g5
S'\xf8\xa5F?'
p5504
tp5505
Rp5506
ag1
(g5
S'?oF?'
p5507
tp5508
Rp5509
ag1
(g5
S'\x18\x85F?'
p5510
tp5511
Rp5512
ag1
(g5
S'LlF?'
p5513
tp5514
Rp5515
ag1
(g5
S'2\x7fF?'
p5516
tp5517
Rp5518
ag1
(g5
S'DaF?'
p5519
tp5520
Rp5521
ag1
(g5
S'RQF?'
p5522
tp5523
Rp5524
ag1
(g5
S'\x9efF?'
p5525
tp5526
Rp5527
ag1
(g5
S'\x00WF?'
p5528
tp5529
Rp5530
ag1
(g5
S'q=F?'
p5531
tp5532
Rp5533
ag1
(g5
S'\x9agF?'
p5534
tp5535
Rp5536
ag1
(g5
S'O\x1eF?'
p5537
tp5538
Rp5539
ag1
(g5
S'\xddkF?'
p5540
tp5541
Rp5542
ag1
(g5
S'\xe9HF?'
p5543
tp5544
Rp5545
ag1
(g5
S'\x9e9F?'
p5546
tp5547
Rp5548
ag1
(g5
S'\xf0mF?'
p5549
tp5550
Rp5551
ag1
(g5
S'\xe7oF?'
p5552
tp5553
Rp5554
ag1
(g5
S'zhF?'
p5555
tp5556
Rp5557
ag1
(g5
S'6\x8bF?'
p5558
tp5559
Rp5560
ag1
(g5
S'\xc5jF?'
p5561
tp5562
Rp5563
ag1
(g5
S'\x0bAF?'
p5564
tp5565
Rp5566
ag1
(g5
S'\xebNF?'
p5567
tp5568
Rp5569
ag1
(g5
S'z[F?'
p5570
tp5571
Rp5572
ag1
(g5
S'V#F?'
p5573
tp5574
Rp5575
ag1
(g5
S'#oF?'
p5576
tp5577
Rp5578
ag1
(g5
S'\xddkF?'
p5579
tp5580
Rp5581
ag1
(g5
S'\xdbXF?'
p5582
tp5583
Rp5584
ag1
(g5
S'Z\\F?'
p5585
tp5586
Rp5587
ag1
(g5
S'\xf8kF?'
p5588
tp5589
Rp5590
ag1
(g5
S'1_F?'
p5591
tp5592
Rp5593
ag1
(g5
S'\xd0\x8eF?'
p5594
tp5595
Rp5596
ag1
(g5
S'\x08UF?'
p5597
tp5598
Rp5599
ag1
(g5
S'\xfaqF?'
p5600
tp5601
Rp5602
ag1
(g5
S'a\x81F?'
p5603
tp5604
Rp5605
ag1
(g5
S'\xc5]F?'
p5606
tp5607
Rp5608
ag1
(g5
S'7qF?'
p5609
tp5610
Rp5611
ag1
(g5
S'WpF?'
p5612
tp5613
Rp5614
ag1
(g5
S'\xcduF?'
p5615
tp5616
Rp5617
ag1
(g5
S'\xe7oF?'
p5618
tp5619
Rp5620
ag1
(g5
S'\x00\x84F?'
p5621
tp5622
Rp5623
ag1
(g5
S'\xd9_F?'
p5624
tp5625
Rp5626
ag1
(g5
S'\xa1RF?'
p5627
tp5628
Rp5629
ag1
(g5
S'\xb2\x88F?'
p5630
tp5631
Rp5632
ag1
(g5
S'\x10@F?'
p5633
tp5634
Rp5635
ag1
(g5
S'\x07BF?'
p5636
tp5637
Rp5638
ag1
(g5
S'-\x80F?'
p5639
tp5640
Rp5641
ag1
(g5
S'V}F?'
p5642
tp5643
Rp5644
ag1
(g5
S'\xc0\x85F?'
p5645
tp5646
Rp5647
ag1
(g5
S'pwF?'
p5648
tp5649
Rp5650
ag1
(g5
S'\x9bZF?'
p5651
tp5652
Rp5653
ag1
(g5
S',mF?'
p5654
tp5655
Rp5656
ag1
(g5
S'\xa9jF?'
p5657
tp5658
Rp5659
ag1
(g5
S'e\x8dF?'
p5660
tp5661
Rp5662
ag1
(g5
S'\xf0\x06F?'
p5663
tp5664
Rp5665
ag1
(g5
S'ZOF?'
p5666
tp5667
Rp5668
ag1
(g5
S'\xf7+F?'
p5669
tp5670
Rp5671
ag1
(g5
S'\xe7\x9cF?'
p5672
tp5673
Rp5674
ag1
(g5
S'\x96\x95F?'
p5675
tp5676
Rp5677
ag1
(g5
S'\x9fLF?'
p5678
tp5679
Rp5680
ag1
(g5
S'\xa1\x99F?'
p5681
tp5682
Rp5683
ag1
(g5
S'\xd3\x87F?'
p5684
tp5685
Rp5686
ag1
(g5
S'\x16EF?'
p5687
tp5688
Rp5689
ag1
(g5
S'%uF?'
p5690
tp5691
Rp5692
ag1
(g5
S'n~F?'
p5693
tp5694
Rp5695
ag1
(g5
S'\xe9HF?'
p5696
tp5697
Rp5698
ag1
(g5
S'a\x8eF?'
p5699
tp5700
Rp5701
ag1
(g5
S'\xa2\x7fF?'
p5702
tp5703
Rp5704
ag1
(g5
S'\x94(F?'
p5705
tp5706
Rp5707
ag1
(g5
S'q0F?'
p5708
tp5709
Rp5710
ag1
(g5
S'\xf2sF?'
p5711
tp5712
Rp5713
ag1
(g5
S'\x16rF?'
p5714
tp5715
Rp5716
ag1
(g5
S'~:F?'
p5717
tp5718
Rp5719
ag1
(g5
S'\x9e9F?'
p5720
tp5721
Rp5722
ag1
(g5
S'ETF?'
p5723
tp5724
Rp5725
ag1
(g5
S'\xe6OF?'
p5726
tp5727
Rp5728
ag1
(g5
S'-SF?'
p5729
tp5730
Rp5731
ag1
(g5
S'$UF?'
p5732
tp5733
Rp5734
ag1
(g5
S'\x99TF?'
p5735
tp5736
Rp5737
ag1
(g5
S'K\x1fF?'
p5738
tp5739
Rp5740
ag1
(g5
S'\xecaF?'
p5741
tp5742
Rp5743
ag1
(g5
S'\x0b\x88F?'
p5744
tp5745
Rp5746
ag1
(g5
S'6QF?'
p5747
tp5748
Rp5749
ag1
(g5
S'\xae\x96F?'
p5750
tp5751
Rp5752
ag1
(g5
S'<VF?'
p5753
tp5754
Rp5755
ag1
(g5
S'\xfcwF?'
p5756
tp5757
Rp5758
ag1
(g5
S'\x98aF?'
p5759
tp5760
Rp5761
ag1
(g5
S'\xcfnF?'
p5762
tp5763
Rp5764
ag1
(g5
S'D\x9bF?'
p5765
tp5766
Rp5767
ag1
(g5
S'\xa4KF?'
p5768
tp5769
Rp5770
ag1
(g5
S'R~F?'
p5771
tp5772
Rp5773
ag1
(g5
S'\xfa\xb8F?'
p5774
tp5775
Rp5776
ag1
(g5
S'\xa4\x85F?'
p5777
tp5778
Rp5779
ag1
(g5
S'\x9c\x9aF?'
p5780
tp5781
Rp5782
ag1
(g5
S'pJF?'
p5783
tp5784
Rp5785
ag1
(g5
S'\xedGF?'
p5786
tp5787
Rp5788
ag1
(g5
S'\xb7\x87F?'
p5789
tp5790
Rp5791
ag1
(g5
S'\x8fcF?'
p5792
tp5793
Rp5794
ag1
(g5
S'6\x8bF?'
p5795
tp5796
Rp5797
ag1
(g5
S'\x1djF?'
p5798
tp5799
Rp5800
ag1
(g5
S'\xc5jF?'
p5801
tp5802
Rp5803
ag1
(g5
S'mkF?'
p5804
tp5805
Rp5806
ag1
(g5
S'\x08UF?'
p5807
tp5808
Rp5809
ag1
(g5
S'\tuF?'
p5810
tp5811
Rp5812
ag1
(g5
S'g\x93F?'
p5813
tp5814
Rp5815
ag1
(g5
S'\x98\x8eF?'
p5816
tp5817
Rp5818
ag1
(g5
S'VPF?'
p5819
tp5820
Rp5821
ag1
(g5
S'+ZF?'
p5822
tp5823
Rp5824
ag1
(g5
S'X\x90F?'
p5825
tp5826
Rp5827
ag1
(g5
S'YiF?'
p5828
tp5829
Rp5830
ag1
(g5
S'\xf5RF?'
p5831
tp5832
Rp5833
ag1
(g5
S'\xa6~F?'
p5834
tp5835
Rp5836
ag1
(g5
S'\xfbWF?'
p5837
tp5838
Rp5839
ag1
(g5
S'\xeeZF?'
p5840
tp5841
Rp5842
ag1
(g5
S'\xf7\x92F?'
p5843
tp5844
Rp5845
ag1
(g5
S'\x9dSF?'
p5846
tp5847
Rp5848
ag1
(g5
S'\xa1\x18F?'
p5849
tp5850
Rp5851
ag1
(g5
S'N\x7fF?'
p5852
tp5853
Rp5854
ag1
(g5
S'\xcfNF?'
p5855
tp5856
Rp5857
ag1
(g5
S'\xf1FF?'
p5858
tp5859
Rp5860
ag1
(g5
S'\x00\xb1F?'
p5861
tp5862
Rp5863
ag1
(g5
S'hyF?'
p5864
tp5865
Rp5866
ag1
(g5
S'\xcd\x82F?'
p5867
tp5868
Rp5869
ag1
(g5
S'+MF?'
p5870
tp5871
Rp5872
ag1
(g5
S')\x81F?'
p5873
tp5874
Rp5875
ag1
(g5
S'q\x97F?'
p5876
tp5877
Rp5878
ag1
(g5
S'\xbcyF?'
p5879
tp5880
Rp5881
ag1
(g5
S'1RF?'
p5882
tp5883
Rp5884
ag1
(g5
S'#|F?'
p5885
tp5886
Rp5887
ag1
(g5
S'!iF?'
p5888
tp5889
Rp5890
ag1
(g5
S'xUF?'
p5891
tp5892
Rp5893
ag1
(g5
S'\xefzF?'
p5894
tp5895
Rp5896
ag1
(g5
S'\x05vF?'
p5897
tp5898
Rp5899
ag1
(g5
S'\xbasF?'
p5900
tp5901
Rp5902
ag1
(g5
S'8\x91F?'
p5903
tp5904
Rp5905
ag1
(g5
S'\xe7oF?'
p5906
tp5907
Rp5908
ag1
(g5
S'\x84yF?'
p5909
tp5910
Rp5911
ag1
(g5
S'\x13\x86F?'
p5912
tp5913
Rp5914
ag1
(g5
S'\xb8\x9aF?'
p5915
tp5916
Rp5917
ag1
(g5
S'\xd3zF?'
p5918
tp5919
Rp5920
ag1
(g5
S'+MF?'
p5921
tp5922
Rp5923
ag1
(g5
S'czF?'
p5924
tp5925
Rp5926
ag1
(g5
S'!IF?'
p5927
tp5928
Rp5929
ag1
(g5
S'\x8f\xaaF?'
p5930
tp5931
Rp5932
ag1
(g5
S'ETF?'
p5933
tp5934
Rp5935
ag1
(g5
S'\xeegF?'
p5936
tp5937
Rp5938
ag1
(g5
S'JsF?'
p5939
tp5940
Rp5941
ag1
(g5
S',mF?'
p5942
tp5943
Rp5944
ag1
(g5
S'\x03pF?'
p5945
tp5946
Rp5947
ag1
(g5
S'b\xa1F?'
p5948
tp5949
Rp5950
ag1
(g5
S'DaF?'
p5951
tp5952
Rp5953
ag1
(g5
S'V\x8aF?'
p5954
tp5955
Rp5956
ag1
(g5
S'\xce\x88F?'
p5957
tp5958
Rp5959
ag1
(g5
S'\x14?F?'
p5960
tp5961
Rp5962
ag1
(g5
S'\x83YF?'
p5963
tp5964
Rp5965
ag1
(g5
S'\xfd\x97F?'
p5966
tp5967
Rp5968
ag1
(g5
S'[oF?'
p5969
tp5970
Rp5971
ag1
(g5
S'\xf5\xb9F?'
p5972
tp5973
Rp5974
ag1
(g5
S'\xaa}F?'
p5975
tp5976
Rp5977
ag1
(g5
S'\x16\x7fF?'
p5978
tp5979
Rp5980
ag1
(g5
S'\t\x82F?'
p5981
tp5982
Rp5983
ag1
(g5
S'2rF?'
p5984
tp5985
Rp5986
ag1
(g5
S'G\x87F?'
p5987
tp5988
Rp5989
ag1
(g5
S'nDF?'
p5990
tp5991
Rp5992
ag1
(g5
S'UjF?'
p5993
tp5994
Rp5995
ag1
(g5
S')\xaeF?'
p5996
tp5997
Rp5998
ag1
(g5
S'\x13\x93F?'
p5999
tp6000
Rp6001
ag1
(g5
S'~\x94F?'
p6002
tp6003
Rp6004
ag1
(g5
S'k\x92F?'
p6005
tp6006
Rp6007
a.