(dp0
S'units_per_layer'
p1
cnumpy.core.multiarray
_reconstruct
p2
(cnumpy
ndarray
p3
(I0
tp4
S'b'
p5
tp6
Rp7
(I1
(I1
tp8
cnumpy
dtype
p9
(S'i8'
p10
I0
I1
tp11
Rp12
(I3
S'<'
p13
NNNI-1
I-1
I0
tp14
bI00
S'\x96\x00\x00\x00\x00\x00\x00\x00'
p15
tp16
bsS'n_hidden_layers'
p17
g2
(g3
(I0
tp18
g5
tp19
Rp20
(I1
(I1
tp21
g12
I00
S'\x02\x00\x00\x00\x00\x00\x00\x00'
p22
tp23
bsS'beta'
p24
g2
(g3
(I0
tp25
g5
tp26
Rp27
(I1
(I1
tp28
g9
(S'f8'
p29
I0
I1
tp30
Rp31
(I3
S'<'
p32
NNNI-1
I-1
I0
tp33
bI00
S'\x9a\x99\x99\x99\x99\x99\xb9?'
p34
tp35
bsS'learning_rate'
p36
g2
(g3
(I0
tp37
g5
tp38
Rp39
(I1
(I1
tp40
g31
I00
S'-C\x1c\xeb\xe26\x1a?'
p41
tp42
bsS'features'
p43
(lp44
S'DER_mass_MMC'
p45
aS'DER_mass_transverse_met_lep'
p46
aS'DER_mass_vis'
p47
aS'DER_pt_h'
p48
aS'DER_deltar_tau_lep'
p49
aS'DER_pt_tot'
p50
aS'DER_sum_pt'
p51
aS'DER_pt_ratio_lep_tau'
p52
aS'DER_met_phi_centrality'
p53
aS'DER_lep_eta_centrality'
p54
as.