(lp0
(cnumpy.core.multiarray
scalar
p1
(cnumpy
dtype
p2
(S'f4'
p3
I0
I1
tp4
Rp5
(I3
S'<'
p6
NNNI-1
I-1
I0
tp7
bS'\x00\x00\x00\x00'
p8
tp9
Rp10
g1
(g5
S'\x1e\xa93?'
p11
tp12
Rp13
tp14
a(g1
(g5
S'\x1e\xa93?'
p15
tp16
Rp17
g1
(g5
S'`\x0b6?'
p18
tp19
Rp20
tp21
a(g1
(g5
S'`\x0b6?'
p22
tp23
Rp24
g1
(g5
S';\xec7?'
p25
tp26
Rp27
tp28
a(g1
(g5
S';\xec7?'
p29
tp30
Rp31
g1
(g5
S'8_9?'
p32
tp33
Rp34
tp35
a(g1
(g5
S'8_9?'
p36
tp37
Rp38
g1
(g5
S'H\x94:?'
p39
tp40
Rp41
tp42
a(g1
(g5
S'H\x94:?'
p43
tp44
Rp45
g1
(g5
S'\xb6\xa0;?'
p46
tp47
Rp48
tp49
a(g1
(g5
S'\xb6\xa0;?'
p50
tp51
Rp52
g1
(g5
S'\xa2\x8c<?'
p53
tp54
Rp55
tp56
a(g1
(g5
S'\xa2\x8c<?'
p57
tp58
Rp59
g1
(g5
S'zN=?'
p60
tp61
Rp62
tp63
a(g1
(g5
S'zN=?'
p64
tp65
Rp66
g1
(g5
S'\xe6\xfb=?'
p67
tp68
Rp69
tp70
a(g1
(g5
S'\xe6\xfb=?'
p71
tp72
Rp73
g1
(g5
S'\xf5\xa2>?'
p74
tp75
Rp76
tp77
a(g1
(g5
S'\xf5\xa2>?'
p78
tp79
Rp80
g1
(g5
S'\xd1M??'
p81
tp82
Rp83
tp84
a(g1
(g5
S'\xd1M??'
p85
tp86
Rp87
g1
(g5
S';\xe1??'
p88
tp89
Rp90
tp91
a(g1
(g5
S';\xe1??'
p92
tp93
Rp94
g1
(g5
S'up@?'
p95
tp96
Rp97
tp98
a(g1
(g5
S'up@?'
p99
tp100
Rp101
g1
(g5
S'\xe6\xf7@?'
p102
tp103
Rp104
tp105
a(g1
(g5
S'\xe6\xf7@?'
p106
tp107
Rp108
g1
(g5
S'\xc7\x7fA?'
p109
tp110
Rp111
tp112
a(g1
(g5
S'\xc7\x7fA?'
p113
tp114
Rp115
g1
(g5
S'\t\x05B?'
p116
tp117
Rp118
tp119
a(g1
(g5
S'\t\x05B?'
p120
tp121
Rp122
g1
(g5
S'\xec\x80B?'
p123
tp124
Rp125
tp126
a(g1
(g5
S'\xec\x80B?'
p127
tp128
Rp129
g1
(g5
S'\xd4\xffB?'
p130
tp131
Rp132
tp133
a(g1
(g5
S'\xd4\xffB?'
p134
tp135
Rp136
g1
(g5
S'LwC?'
p137
tp138
Rp139
tp140
a(g1
(g5
S'LwC?'
p141
tp142
Rp143
g1
(g5
S'\xd3\xf0C?'
p144
tp145
Rp146
tp147
a(g1
(g5
S'\xd3\xf0C?'
p148
tp149
Rp150
g1
(g5
S'\xf6dD?'
p151
tp152
Rp153
tp154
a(g1
(g5
S'\xf6dD?'
p155
tp156
Rp157
g1
(g5
S'r\xd5D?'
p158
tp159
Rp160
tp161
a(g1
(g5
S'r\xd5D?'
p162
tp163
Rp164
g1
(g5
S'+DE?'
p165
tp166
Rp167
tp168
a(g1
(g5
S'+DE?'
p169
tp170
Rp171
g1
(g5
S'\r\xb8E?'
p172
tp173
Rp174
tp175
a(g1
(g5
S'\r\xb8E?'
p176
tp177
Rp178
g1
(g5
S'\xc8%F?'
p179
tp180
Rp181
tp182
a(g1
(g5
S'\xc8%F?'
p183
tp184
Rp185
g1
(g5
S'\xad\x8eF?'
p186
tp187
Rp188
tp189
a(g1
(g5
S'\xad\x8eF?'
p190
tp191
Rp192
g1
(g5
S'v\xecF?'
p193
tp194
Rp195
tp196
a(g1
(g5
S'v\xecF?'
p197
tp198
Rp199
g1
(g5
S']GG?'
p200
tp201
Rp202
tp203
a(g1
(g5
S']GG?'
p204
tp205
Rp206
g1
(g5
S'\xdf\x9fG?'
p207
tp208
Rp209
tp210
a(g1
(g5
S'\xdf\x9fG?'
p211
tp212
Rp213
g1
(g5
S'\xfa\xf2G?'
p214
tp215
Rp216
tp217
a(g1
(g5
S'\xfa\xf2G?'
p218
tp219
Rp220
g1
(g5
S'\xb3@H?'
p221
tp222
Rp223
tp224
a(g1
(g5
S'\xb3@H?'
p225
tp226
Rp227
g1
(g5
S'\xa8\x85H?'
p228
tp229
Rp230
tp231
a(g1
(g5
S'\xa8\x85H?'
p232
tp233
Rp234
g1
(g5
S'D\xccH?'
p235
tp236
Rp237
tp238
a(g1
(g5
S'D\xccH?'
p239
tp240
Rp241
g1
(g5
S'\xe6\x12I?'
p242
tp243
Rp244
tp245
a(g1
(g5
S'\xe6\x12I?'
p246
tp247
Rp248
g1
(g5
S'\xf6TI?'
p249
tp250
Rp251
tp252
a(g1
(g5
S'\xf6TI?'
p253
tp254
Rp255
g1
(g5
S'\x16\x92I?'
p256
tp257
Rp258
tp259
a(g1
(g5
S'\x16\x92I?'
p260
tp261
Rp262
g1
(g5
S'B\xd2I?'
p263
tp264
Rp265
tp266
a(g1
(g5
S'B\xd2I?'
p267
tp268
Rp269
g1
(g5
S'\x9f\x0eJ?'
p270
tp271
Rp272
tp273
a(g1
(g5
S'\x9f\x0eJ?'
p274
tp275
Rp276
g1
(g5
S'\x0bJJ?'
p277
tp278
Rp279
tp280
a(g1
(g5
S'\x0bJJ?'
p281
tp282
Rp283
g1
(g5
S'\xbd\x86J?'
p284
tp285
Rp286
tp287
a(g1
(g5
S'\xbd\x86J?'
p288
tp289
Rp290
g1
(g5
S'\x87\xc1J?'
p291
tp292
Rp293
tp294
a(g1
(g5
S'\x87\xc1J?'
p295
tp296
Rp297
g1
(g5
S'\xc3\xfeJ?'
p298
tp299
Rp300
tp301
a(g1
(g5
S'\xc3\xfeJ?'
p302
tp303
Rp304
g1
(g5
S'\x999K?'
p305
tp306
Rp307
tp308
a(g1
(g5
S'\x999K?'
p309
tp310
Rp311
g1
(g5
S'\x8avK?'
p312
tp313
Rp314
tp315
a(g1
(g5
S'\x8avK?'
p316
tp317
Rp318
g1
(g5
S'\x07\xb4K?'
p319
tp320
Rp321
tp322
a(g1
(g5
S'\x07\xb4K?'
p323
tp324
Rp325
g1
(g5
S'\xd8\xf2K?'
p326
tp327
Rp328
tp329
a(g1
(g5
S'\xd8\xf2K?'
p330
tp331
Rp332
g1
(g5
S'\xc31L?'
p333
tp334
Rp335
tp336
a(g1
(g5
S'\xc31L?'
p337
tp338
Rp339
g1
(g5
S'\xa3nL?'
p340
tp341
Rp342
tp343
a(g1
(g5
S'\xa3nL?'
p344
tp345
Rp346
g1
(g5
S'\x90\xa9L?'
p347
tp348
Rp349
tp350
a(g1
(g5
S'\x90\xa9L?'
p351
tp352
Rp353
g1
(g5
S'Z\xe7L?'
p354
tp355
Rp356
tp357
a(g1
(g5
S'Z\xe7L?'
p358
tp359
Rp360
g1
(g5
S'e&M?'
p361
tp362
Rp363
tp364
a(g1
(g5
S'e&M?'
p365
tp366
Rp367
g1
(g5
S'\xe8dM?'
p368
tp369
Rp370
tp371
a(g1
(g5
S'\xe8dM?'
p372
tp373
Rp374
g1
(g5
S'\xd6\xa1M?'
p375
tp376
Rp377
tp378
a(g1
(g5
S'\xd6\xa1M?'
p379
tp380
Rp381
g1
(g5
S'j\xdfM?'
p382
tp383
Rp384
tp385
a(g1
(g5
S'j\xdfM?'
p386
tp387
Rp388
g1
(g5
S'\x04\x1fN?'
p389
tp390
Rp391
tp392
a(g1
(g5
S'\x04\x1fN?'
p393
tp394
Rp395
g1
(g5
S'\xebYN?'
p396
tp397
Rp398
tp399
a(g1
(g5
S'\xebYN?'
p400
tp401
Rp402
g1
(g5
S'[\x97N?'
p403
tp404
Rp405
tp406
a(g1
(g5
S'[\x97N?'
p407
tp408
Rp409
g1
(g5
S'J\xd2N?'
p410
tp411
Rp412
tp413
a(g1
(g5
S'J\xd2N?'
p414
tp415
Rp416
g1
(g5
S'\xb2\rO?'
p417
tp418
Rp419
tp420
a(g1
(g5
S'\xb2\rO?'
p421
tp422
Rp423
g1
(g5
S'7GO?'
p424
tp425
Rp426
tp427
a(g1
(g5
S'7GO?'
p428
tp429
Rp430
g1
(g5
S'\x88\x80O?'
p431
tp432
Rp433
tp434
a(g1
(g5
S'\x88\x80O?'
p435
tp436
Rp437
g1
(g5
S'\xdc\xb9O?'
p438
tp439
Rp440
tp441
a(g1
(g5
S'\xdc\xb9O?'
p442
tp443
Rp444
g1
(g5
S'$\xf3O?'
p445
tp446
Rp447
tp448
a(g1
(g5
S'$\xf3O?'
p449
tp450
Rp451
g1
(g5
S'\x1c,P?'
p452
tp453
Rp454
tp455
a(g1
(g5
S'\x1c,P?'
p456
tp457
Rp458
g1
(g5
S'vbP?'
p459
tp460
Rp461
tp462
a(g1
(g5
S'vbP?'
p463
tp464
Rp465
g1
(g5
S'J\x98P?'
p466
tp467
Rp468
tp469
a(g1
(g5
S'J\x98P?'
p470
tp471
Rp472
g1
(g5
S'\x0c\xcbP?'
p473
tp474
Rp475
tp476
a(g1
(g5
S'\x0c\xcbP?'
p477
tp478
Rp479
g1
(g5
S'\xe3\xffP?'
p480
tp481
Rp482
tp483
a(g1
(g5
S'\xe3\xffP?'
p484
tp485
Rp486
g1
(g5
S'\xe62Q?'
p487
tp488
Rp489
tp490
a(g1
(g5
S'\xe62Q?'
p491
tp492
Rp493
g1
(g5
S'\xe4fQ?'
p494
tp495
Rp496
tp497
a(g1
(g5
S'\xe4fQ?'
p498
tp499
Rp500
g1
(g5
S'\xc4\x99Q?'
p501
tp502
Rp503
tp504
a(g1
(g5
S'\xc4\x99Q?'
p505
tp506
Rp507
g1
(g5
S'\xad\xcbQ?'
p508
tp509
Rp510
tp511
a(g1
(g5
S'\xad\xcbQ?'
p512
tp513
Rp514
g1
(g5
S'\x8c\xfbQ?'
p515
tp516
Rp517
tp518
a(g1
(g5
S'\x8c\xfbQ?'
p519
tp520
Rp521
g1
(g5
S'\xc3,R?'
p522
tp523
Rp524
tp525
a(g1
(g5
S'\xc3,R?'
p526
tp527
Rp528
g1
(g5
S'\xf8\\R?'
p529
tp530
Rp531
tp532
a(g1
(g5
S'\xf8\\R?'
p533
tp534
Rp535
g1
(g5
S'\xcd\x8bR?'
p536
tp537
Rp538
tp539
a(g1
(g5
S'\xcd\x8bR?'
p540
tp541
Rp542
g1
(g5
S'v\xbaR?'
p543
tp544
Rp545
tp546
a(g1
(g5
S'v\xbaR?'
p547
tp548
Rp549
g1
(g5
S'g\xe8R?'
p550
tp551
Rp552
tp553
a(g1
(g5
S'g\xe8R?'
p554
tp555
Rp556
g1
(g5
S'\xd3\x15S?'
p557
tp558
Rp559
tp560
a(g1
(g5
S'\xd3\x15S?'
p561
tp562
Rp563
g1
(g5
S'5BS?'
p564
tp565
Rp566
tp567
a(g1
(g5
S'5BS?'
p568
tp569
Rp570
g1
(g5
S'\xeanS?'
p571
tp572
Rp573
tp574
a(g1
(g5
S'\xeanS?'
p575
tp576
Rp577
g1
(g5
S'\xb8\x9bS?'
p578
tp579
Rp580
tp581
a(g1
(g5
S'\xb8\x9bS?'
p582
tp583
Rp584
g1
(g5
S'\xf5\xc6S?'
p585
tp586
Rp587
tp588
a(g1
(g5
S'\xf5\xc6S?'
p589
tp590
Rp591
g1
(g5
S'\x80\xf1S?'
p592
tp593
Rp594
tp595
a(g1
(g5
S'\x80\xf1S?'
p596
tp597
Rp598
g1
(g5
S'j\x1cT?'
p599
tp600
Rp601
tp602
a(g1
(g5
S'j\x1cT?'
p603
tp604
Rp605
g1
(g5
S'oFT?'
p606
tp607
Rp608
tp609
a(g1
(g5
S'oFT?'
p610
tp611
Rp612
g1
(g5
S'VoT?'
p613
tp614
Rp615
tp616
a(g1
(g5
S'VoT?'
p617
tp618
Rp619
g1
(g5
S'y\x96T?'
p620
tp621
Rp622
tp623
a(g1
(g5
S'y\x96T?'
p624
tp625
Rp626
g1
(g5
S'\x13\xbdT?'
p627
tp628
Rp629
tp630
a(g1
(g5
S'\x13\xbdT?'
p631
tp632
Rp633
g1
(g5
S'\x95\xe3T?'
p634
tp635
Rp636
tp637
a(g1
(g5
S'\x95\xe3T?'
p638
tp639
Rp640
g1
(g5
S'\xb6\tU?'
p641
tp642
Rp643
tp644
a(g1
(g5
S'\xb6\tU?'
p645
tp646
Rp647
g1
(g5
S'k.U?'
p648
tp649
Rp650
tp651
a(g1
(g5
S'k.U?'
p652
tp653
Rp654
g1
(g5
S'\x8eSU?'
p655
tp656
Rp657
tp658
a(g1
(g5
S'\x8eSU?'
p659
tp660
Rp661
g1
(g5
S'\x18wU?'
p662
tp663
Rp664
tp665
a(g1
(g5
S'\x18wU?'
p666
tp667
Rp668
g1
(g5
S'\xce\x9aU?'
p669
tp670
Rp671
tp672
a(g1
(g5
S'\xce\x9aU?'
p673
tp674
Rp675
g1
(g5
S'\x9d\xbcU?'
p676
tp677
Rp678
tp679
a(g1
(g5
S'\x9d\xbcU?'
p680
tp681
Rp682
g1
(g5
S'\xaa\xdfU?'
p683
tp684
Rp685
tp686
a(g1
(g5
S'\xaa\xdfU?'
p687
tp688
Rp689
g1
(g5
S'\xeb\x01V?'
p690
tp691
Rp692
tp693
a(g1
(g5
S'\xeb\x01V?'
p694
tp695
Rp696
g1
(g5
S'\x1d$V?'
p697
tp698
Rp699
tp700
a(g1
(g5
S'\x1d$V?'
p701
tp702
Rp703
g1
(g5
S'\x13EV?'
p704
tp705
Rp706
tp707
a(g1
(g5
S'\x13EV?'
p708
tp709
Rp710
g1
(g5
S'\x9dfV?'
p711
tp712
Rp713
tp714
a(g1
(g5
S'\x9dfV?'
p715
tp716
Rp717
g1
(g5
S'\xc2\x86V?'
p718
tp719
Rp720
tp721
a(g1
(g5
S'\xc2\x86V?'
p722
tp723
Rp724
g1
(g5
S'\x03\xa7V?'
p725
tp726
Rp727
tp728
a(g1
(g5
S'\x03\xa7V?'
p729
tp730
Rp731
g1
(g5
S'\x9c\xc7V?'
p732
tp733
Rp734
tp735
a(g1
(g5
S'\x9c\xc7V?'
p736
tp737
Rp738
g1
(g5
S'0\xe7V?'
p739
tp740
Rp741
tp742
a(g1
(g5
S'0\xe7V?'
p743
tp744
Rp745
g1
(g5
S'Z\x06W?'
p746
tp747
Rp748
tp749
a(g1
(g5
S'Z\x06W?'
p750
tp751
Rp752
g1
(g5
S'\x97$W?'
p753
tp754
Rp755
tp756
a(g1
(g5
S'\x97$W?'
p757
tp758
Rp759
g1
(g5
S'\xf0AW?'
p760
tp761
Rp762
tp763
a(g1
(g5
S'\xf0AW?'
p764
tp765
Rp766
g1
(g5
S'\xf8_W?'
p767
tp768
Rp769
tp770
a(g1
(g5
S'\xf8_W?'
p771
tp772
Rp773
g1
(g5
S'\xe4|W?'
p774
tp775
Rp776
tp777
a(g1
(g5
S'\xe4|W?'
p778
tp779
Rp780
g1
(g5
S'\x17\x99W?'
p781
tp782
Rp783
tp784
a(g1
(g5
S'\x17\x99W?'
p785
tp786
Rp787
g1
(g5
S'}\xb5W?'
p788
tp789
Rp790
tp791
a(g1
(g5
S'}\xb5W?'
p792
tp793
Rp794
g1
(g5
S'\xf8\xd0W?'
p795
tp796
Rp797
tp798
a(g1
(g5
S'\xf8\xd0W?'
p799
tp800
Rp801
g1
(g5
S'\x9d\xecW?'
p802
tp803
Rp804
tp805
a(g1
(g5
S'\x9d\xecW?'
p806
tp807
Rp808
g1
(g5
S'\x1b\x08X?'
p809
tp810
Rp811
tp812
a(g1
(g5
S'\x1b\x08X?'
p813
tp814
Rp815
g1
(g5
S'\xd8#X?'
p816
tp817
Rp818
tp819
a(g1
(g5
S'\xd8#X?'
p820
tp821
Rp822
g1
(g5
S'o>X?'
p823
tp824
Rp825
tp826
a(g1
(g5
S'o>X?'
p827
tp828
Rp829
g1
(g5
S'\xaaXX?'
p830
tp831
Rp832
tp833
a(g1
(g5
S'\xaaXX?'
p834
tp835
Rp836
g1
(g5
S'>sX?'
p837
tp838
Rp839
tp840
a(g1
(g5
S'>sX?'
p841
tp842
Rp843
g1
(g5
S'\x12\x8dX?'
p844
tp845
Rp846
tp847
a(g1
(g5
S'\x12\x8dX?'
p848
tp849
Rp850
g1
(g5
S'\xc6\xa6X?'
p851
tp852
Rp853
tp854
a(g1
(g5
S'\xc6\xa6X?'
p855
tp856
Rp857
g1
(g5
S'\xfc\xbfX?'
p858
tp859
Rp860
tp861
a(g1
(g5
S'\xfc\xbfX?'
p862
tp863
Rp864
g1
(g5
S'\xee\xd8X?'
p865
tp866
Rp867
tp868
a(g1
(g5
S'\xee\xd8X?'
p869
tp870
Rp871
g1
(g5
S'\xbb\xf1X?'
p872
tp873
Rp874
tp875
a(g1
(g5
S'\xbb\xf1X?'
p876
tp877
Rp878
g1
(g5
S'O\nY?'
p879
tp880
Rp881
tp882
a(g1
(g5
S'O\nY?'
p883
tp884
Rp885
g1
(g5
S'h"Y?'
p886
tp887
Rp888
tp889
a(g1
(g5
S'h"Y?'
p890
tp891
Rp892
g1
(g5
S'\x15:Y?'
p893
tp894
Rp895
tp896
a(g1
(g5
S'\x15:Y?'
p897
tp898
Rp899
g1
(g5
S'_QY?'
p900
tp901
Rp902
tp903
a(g1
(g5
S'_QY?'
p904
tp905
Rp906
g1
(g5
S'\x98hY?'
p907
tp908
Rp909
tp910
a(g1
(g5
S'\x98hY?'
p911
tp912
Rp913
g1
(g5
S'Z\x7fY?'
p914
tp915
Rp916
tp917
a(g1
(g5
S'Z\x7fY?'
p918
tp919
Rp920
g1
(g5
S'\xdf\x95Y?'
p921
tp922
Rp923
tp924
a(g1
(g5
S'\xdf\x95Y?'
p925
tp926
Rp927
g1
(g5
S'\xc7\xabY?'
p928
tp929
Rp930
tp931
a(g1
(g5
S'\xc7\xabY?'
p932
tp933
Rp934
g1
(g5
S'\xbc\xc1Y?'
p935
tp936
Rp937
tp938
a(g1
(g5
S'\xbc\xc1Y?'
p939
tp940
Rp941
g1
(g5
S'\xa4\xd7Y?'
p942
tp943
Rp944
tp945
a(g1
(g5
S'\xa4\xd7Y?'
p946
tp947
Rp948
g1
(g5
S'W\xedY?'
p949
tp950
Rp951
tp952
a(g1
(g5
S'W\xedY?'
p953
tp954
Rp955
g1
(g5
S'\xb3\x02Z?'
p956
tp957
Rp958
tp959
a(g1
(g5
S'\xb3\x02Z?'
p960
tp961
Rp962
g1
(g5
S'\xbe\x17Z?'
p963
tp964
Rp965
tp966
a(g1
(g5
S'\xbe\x17Z?'
p967
tp968
Rp969
g1
(g5
S'i,Z?'
p970
tp971
Rp972
tp973
a(g1
(g5
S'i,Z?'
p974
tp975
Rp976
g1
(g5
S'\x1aAZ?'
p977
tp978
Rp979
tp980
a(g1
(g5
S'\x1aAZ?'
p981
tp982
Rp983
g1
(g5
S'bUZ?'
p984
tp985
Rp986
tp987
a(g1
(g5
S'bUZ?'
p988
tp989
Rp990
g1
(g5
S'>iZ?'
p991
tp992
Rp993
tp994
a(g1
(g5
S'>iZ?'
p995
tp996
Rp997
g1
(g5
S'\x12}Z?'
p998
tp999
Rp1000
tp1001
a(g1
(g5
S'\x12}Z?'
p1002
tp1003
Rp1004
g1
(g5
S'\x85\x90Z?'
p1005
tp1006
Rp1007
tp1008
a(g1
(g5
S'\x85\x90Z?'
p1009
tp1010
Rp1011
g1
(g5
S'\xfa\xa3Z?'
p1012
tp1013
Rp1014
tp1015
a(g1
(g5
S'\xfa\xa3Z?'
p1016
tp1017
Rp1018
g1
(g5
S'\xc2\xb6Z?'
p1019
tp1020
Rp1021
tp1022
a(g1
(g5
S'\xc2\xb6Z?'
p1023
tp1024
Rp1025
g1
(g5
S'\x0f\xcaZ?'
p1026
tp1027
Rp1028
tp1029
a(g1
(g5
S'\x0f\xcaZ?'
p1030
tp1031
Rp1032
g1
(g5
S'\xfd\xdbZ?'
p1033
tp1034
Rp1035
tp1036
a(g1
(g5
S'\xfd\xdbZ?'
p1037
tp1038
Rp1039
g1
(g5
S'm\xeeZ?'
p1040
tp1041
Rp1042
tp1043
a(g1
(g5
S'm\xeeZ?'
p1044
tp1045
Rp1046
g1
(g5
S'\x8d\x00[?'
p1047
tp1048
Rp1049
tp1050
a(g1
(g5
S'\x8d\x00[?'
p1051
tp1052
Rp1053
g1
(g5
S'\xb0\x12[?'
p1054
tp1055
Rp1056
tp1057
a(g1
(g5
S'\xb0\x12[?'
p1058
tp1059
Rp1060
g1
(g5
S'\xa2$[?'
p1061
tp1062
Rp1063
tp1064
a(g1
(g5
S'\xa2$[?'
p1065
tp1066
Rp1067
g1
(g5
S'A6[?'
p1068
tp1069
Rp1070
tp1071
a(g1
(g5
S'A6[?'
p1072
tp1073
Rp1074
g1
(g5
S'\xc5G[?'
p1075
tp1076
Rp1077
tp1078
a(g1
(g5
S'\xc5G[?'
p1079
tp1080
Rp1081
g1
(g5
S'!Y[?'
p1082
tp1083
Rp1084
tp1085
a(g1
(g5
S'!Y[?'
p1086
tp1087
Rp1088
g1
(g5
S'Mj[?'
p1089
tp1090
Rp1091
tp1092
a(g1
(g5
S'Mj[?'
p1093
tp1094
Rp1095
g1
(g5
S'${[?'
p1096
tp1097
Rp1098
tp1099
a(g1
(g5
S'${[?'
p1100
tp1101
Rp1102
g1
(g5
S'\xf6\x8b[?'
p1103
tp1104
Rp1105
tp1106
a(g1
(g5
S'\xf6\x8b[?'
p1107
tp1108
Rp1109
g1
(g5
S'\x8c\x9c[?'
p1110
tp1111
Rp1112
tp1113
a(g1
(g5
S'\x8c\x9c[?'
p1114
tp1115
Rp1116
g1
(g5
S'\x17\xad[?'
p1117
tp1118
Rp1119
tp1120
a(g1
(g5
S'\x17\xad[?'
p1121
tp1122
Rp1123
g1
(g5
S'p\xbd[?'
p1124
tp1125
Rp1126
tp1127
a(g1
(g5
S'p\xbd[?'
p1128
tp1129
Rp1130
g1
(g5
S'\x9c\xcd[?'
p1131
tp1132
Rp1133
tp1134
a(g1
(g5
S'\x9c\xcd[?'
p1135
tp1136
Rp1137
g1
(g5
S'\xb1\xdd[?'
p1138
tp1139
Rp1140
tp1141
a(g1
(g5
S'\xb1\xdd[?'
p1142
tp1143
Rp1144
g1
(g5
S'v\xed[?'
p1145
tp1146
Rp1147
tp1148
a(g1
(g5
S'v\xed[?'
p1149
tp1150
Rp1151
g1
(g5
S'\x17\xfd[?'
p1152
tp1153
Rp1154
tp1155
a(g1
(g5
S'\x17\xfd[?'
p1156
tp1157
Rp1158
g1
(g5
S'x\x0c\\?'
p1159
tp1160
Rp1161
tp1162
a(g1
(g5
S'x\x0c\\?'
p1163
tp1164
Rp1165
g1
(g5
S'\xdd\x1b\\?'
p1166
tp1167
Rp1168
tp1169
a(g1
(g5
S'\xdd\x1b\\?'
p1170
tp1171
Rp1172
g1
(g5
S'3+\\?'
p1173
tp1174
Rp1175
tp1176
a(g1
(g5
S'3+\\?'
p1177
tp1178
Rp1179
g1
(g5
S'J:\\?'
p1180
tp1181
Rp1182
tp1183
a(g1
(g5
S'J:\\?'
p1184
tp1185
Rp1186
g1
(g5
S'\xeaH\\?'
p1187
tp1188
Rp1189
tp1190
a(g1
(g5
S'\xeaH\\?'
p1191
tp1192
Rp1193
g1
(g5
S'\xdcW\\?'
p1194
tp1195
Rp1196
tp1197
a(g1
(g5
S'\xdcW\\?'
p1198
tp1199
Rp1200
g1
(g5
S'`f\\?'
p1201
tp1202
Rp1203
tp1204
a(g1
(g5
S'`f\\?'
p1205
tp1206
Rp1207
g1
(g5
S'\xf5t\\?'
p1208
tp1209
Rp1210
tp1211
a(g1
(g5
S'\xf5t\\?'
p1212
tp1213
Rp1214
g1
(g5
S'Q\x83\\?'
p1215
tp1216
Rp1217
tp1218
a(g1
(g5
S'Q\x83\\?'
p1219
tp1220
Rp1221
g1
(g5
S'\x94\x91\\?'
p1222
tp1223
Rp1224
tp1225
a(g1
(g5
S'\x94\x91\\?'
p1226
tp1227
Rp1228
g1
(g5
S'\xcf\x9f\\?'
p1229
tp1230
Rp1231
tp1232
a(g1
(g5
S'\xcf\x9f\\?'
p1233
tp1234
Rp1235
g1
(g5
S'\xd9\xad\\?'
p1236
tp1237
Rp1238
tp1239
a(g1
(g5
S'\xd9\xad\\?'
p1240
tp1241
Rp1242
g1
(g5
S'\x7f\xbb\\?'
p1243
tp1244
Rp1245
tp1246
a(g1
(g5
S'\x7f\xbb\\?'
p1247
tp1248
Rp1249
g1
(g5
S'\xe7\xc8\\?'
p1250
tp1251
Rp1252
tp1253
a(g1
(g5
S'\xe7\xc8\\?'
p1254
tp1255
Rp1256
g1
(g5
S'\x86\xd6\\?'
p1257
tp1258
Rp1259
tp1260
a(g1
(g5
S'\x86\xd6\\?'
p1261
tp1262
Rp1263
g1
(g5
S'\xf9\xe3\\?'
p1264
tp1265
Rp1266
tp1267
a(g1
(g5
S'\xf9\xe3\\?'
p1268
tp1269
Rp1270
g1
(g5
S'C\xf1\\?'
p1271
tp1272
Rp1273
tp1274
a(g1
(g5
S'C\xf1\\?'
p1275
tp1276
Rp1277
g1
(g5
S'\x9c\xfe\\?'
p1278
tp1279
Rp1280
tp1281
a(g1
(g5
S'\x9c\xfe\\?'
p1282
tp1283
Rp1284
g1
(g5
S'\x8b\x0b]?'
p1285
tp1286
Rp1287
tp1288
a(g1
(g5
S'\x8b\x0b]?'
p1289
tp1290
Rp1291
g1
(g5
S'\x9d\x18]?'
p1292
tp1293
Rp1294
tp1295
a(g1
(g5
S'\x9d\x18]?'
p1296
tp1297
Rp1298
g1
(g5
S' %]?'
p1299
tp1300
Rp1301
tp1302
a(g1
(g5
S' %]?'
p1303
tp1304
Rp1305
g1
(g5
S'\xdb1]?'
p1306
tp1307
Rp1308
tp1309
a(g1
(g5
S'\xdb1]?'
p1310
tp1311
Rp1312
g1
(g5
S'\x17>]?'
p1313
tp1314
Rp1315
tp1316
a(g1
(g5
S'\x17>]?'
p1317
tp1318
Rp1319
g1
(g5
S'\x8aJ]?'
p1320
tp1321
Rp1322
tp1323
a(g1
(g5
S'\x8aJ]?'
p1324
tp1325
Rp1326
g1
(g5
S'\x13W]?'
p1327
tp1328
Rp1329
tp1330
a(g1
(g5
S'\x13W]?'
p1331
tp1332
Rp1333
g1
(g5
S'Oc]?'
p1334
tp1335
Rp1336
tp1337
a(g1
(g5
S'Oc]?'
p1338
tp1339
Rp1340
g1
(g5
S'\x84o]?'
p1341
tp1342
Rp1343
tp1344
a(g1
(g5
S'\x84o]?'
p1345
tp1346
Rp1347
g1
(g5
S'\xae{]?'
p1348
tp1349
Rp1350
tp1351
a(g1
(g5
S'\xae{]?'
p1352
tp1353
Rp1354
g1
(g5
S'\xb0\x87]?'
p1355
tp1356
Rp1357
tp1358
a(g1
(g5
S'\xb0\x87]?'
p1359
tp1360
Rp1361
g1
(g5
S'\xfa\x92]?'
p1362
tp1363
Rp1364
tp1365
a(g1
(g5
S'\xfa\x92]?'
p1366
tp1367
Rp1368
g1
(g5
S'\xc1\x9e]?'
p1369
tp1370
Rp1371
tp1372
a(g1
(g5
S'\xc1\x9e]?'
p1373
tp1374
Rp1375
g1
(g5
S'!\xaa]?'
p1376
tp1377
Rp1378
tp1379
a(g1
(g5
S'!\xaa]?'
p1380
tp1381
Rp1382
g1
(g5
S'\xd1\xb5]?'
p1383
tp1384
Rp1385
tp1386
a(g1
(g5
S'\xd1\xb5]?'
p1387
tp1388
Rp1389
g1
(g5
S'\x19\xc1]?'
p1390
tp1391
Rp1392
tp1393
a(g1
(g5
S'\x19\xc1]?'
p1394
tp1395
Rp1396
g1
(g5
S'v\xcc]?'
p1397
tp1398
Rp1399
tp1400
a(g1
(g5
S'v\xcc]?'
p1401
tp1402
Rp1403
g1
(g5
S'\xbb\xd7]?'
p1404
tp1405
Rp1406
tp1407
a(g1
(g5
S'\xbb\xd7]?'
p1408
tp1409
Rp1410
g1
(g5
S'\x12\xe3]?'
p1411
tp1412
Rp1413
tp1414
a(g1
(g5
S'\x12\xe3]?'
p1415
tp1416
Rp1417
g1
(g5
S'=\xee]?'
p1418
tp1419
Rp1420
tp1421
a(g1
(g5
S'=\xee]?'
p1422
tp1423
Rp1424
g1
(g5
S'Q\xf9]?'
p1425
tp1426
Rp1427
tp1428
a(g1
(g5
S'Q\xf9]?'
p1429
tp1430
Rp1431
g1
(g5
S'F\x04^?'
p1432
tp1433
Rp1434
tp1435
a(g1
(g5
S'F\x04^?'
p1436
tp1437
Rp1438
g1
(g5
S'\xa5\x0e^?'
p1439
tp1440
Rp1441
tp1442
a(g1
(g5
S'\xa5\x0e^?'
p1443
tp1444
Rp1445
g1
(g5
S'\x8d\x19^?'
p1446
tp1447
Rp1448
tp1449
a(g1
(g5
S'\x8d\x19^?'
p1450
tp1451
Rp1452
g1
(g5
S';$^?'
p1453
tp1454
Rp1455
tp1456
a(g1
(g5
S';$^?'
p1457
tp1458
Rp1459
g1
(g5
S'\xd3.^?'
p1460
tp1461
Rp1462
tp1463
a(g1
(g5
S'\xd3.^?'
p1464
tp1465
Rp1466
g1
(g5
S'-9^?'
p1467
tp1468
Rp1469
tp1470
a(g1
(g5
S'-9^?'
p1471
tp1472
Rp1473
g1
(g5
S'\xadC^?'
p1474
tp1475
Rp1476
tp1477
a(g1
(g5
S'\xadC^?'
p1478
tp1479
Rp1480
g1
(g5
S'\xe5M^?'
p1481
tp1482
Rp1483
tp1484
a(g1
(g5
S'\xe5M^?'
p1485
tp1486
Rp1487
g1
(g5
S'FX^?'
p1488
tp1489
Rp1490
tp1491
a(g1
(g5
S'FX^?'
p1492
tp1493
Rp1494
g1
(g5
S'\x83b^?'
p1495
tp1496
Rp1497
tp1498
a(g1
(g5
S'\x83b^?'
p1499
tp1500
Rp1501
g1
(g5
S'\x91l^?'
p1502
tp1503
Rp1504
tp1505
a(g1
(g5
S'\x91l^?'
p1506
tp1507
Rp1508
g1
(g5
S'|v^?'
p1509
tp1510
Rp1511
tp1512
a(g1
(g5
S'|v^?'
p1513
tp1514
Rp1515
g1
(g5
S'e\x80^?'
p1516
tp1517
Rp1518
tp1519
a(g1
(g5
S'e\x80^?'
p1520
tp1521
Rp1522
g1
(g5
S'/\x8a^?'
p1523
tp1524
Rp1525
tp1526
a(g1
(g5
S'/\x8a^?'
p1527
tp1528
Rp1529
g1
(g5
S'\xfa\x93^?'
p1530
tp1531
Rp1532
tp1533
a(g1
(g5
S'\xfa\x93^?'
p1534
tp1535
Rp1536
g1
(g5
S'\x87\x9d^?'
p1537
tp1538
Rp1539
tp1540
a(g1
(g5
S'\x87\x9d^?'
p1541
tp1542
Rp1543
g1
(g5
S'\x12\xa7^?'
p1544
tp1545
Rp1546
tp1547
a(g1
(g5
S'\x12\xa7^?'
p1548
tp1549
Rp1550
g1
(g5
S'\xa8\xb0^?'
p1551
tp1552
Rp1553
tp1554
a(g1
(g5
S'\xa8\xb0^?'
p1555
tp1556
Rp1557
g1
(g5
S'\xf8\xb9^?'
p1558
tp1559
Rp1560
tp1561
a(g1
(g5
S'\xf8\xb9^?'
p1562
tp1563
Rp1564
g1
(g5
S'0\xc3^?'
p1565
tp1566
Rp1567
tp1568
a(g1
(g5
S'0\xc3^?'
p1569
tp1570
Rp1571
g1
(g5
S'n\xcc^?'
p1572
tp1573
Rp1574
tp1575
a(g1
(g5
S'n\xcc^?'
p1576
tp1577
Rp1578
g1
(g5
S'}\xd5^?'
p1579
tp1580
Rp1581
tp1582
a(g1
(g5
S'}\xd5^?'
p1583
tp1584
Rp1585
g1
(g5
S'_\xde^?'
p1586
tp1587
Rp1588
tp1589
a(g1
(g5
S'_\xde^?'
p1590
tp1591
Rp1592
g1
(g5
S'L\xe7^?'
p1593
tp1594
Rp1595
tp1596
a(g1
(g5
S'L\xe7^?'
p1597
tp1598
Rp1599
g1
(g5
S'K\xf0^?'
p1600
tp1601
Rp1602
tp1603
a(g1
(g5
S'K\xf0^?'
p1604
tp1605
Rp1606
g1
(g5
S'C\xf9^?'
p1607
tp1608
Rp1609
tp1610
a(g1
(g5
S'C\xf9^?'
p1611
tp1612
Rp1613
g1
(g5
S',\x02_?'
p1614
tp1615
Rp1616
tp1617
a(g1
(g5
S',\x02_?'
p1618
tp1619
Rp1620
g1
(g5
S'\xc1\n_?'
p1621
tp1622
Rp1623
tp1624
a(g1
(g5
S'\xc1\n_?'
p1625
tp1626
Rp1627
g1
(g5
S'\x98\x13_?'
p1628
tp1629
Rp1630
tp1631
a(g1
(g5
S'\x98\x13_?'
p1632
tp1633
Rp1634
g1
(g5
S'\xf6\x1b_?'
p1635
tp1636
Rp1637
tp1638
a(g1
(g5
S'\xf6\x1b_?'
p1639
tp1640
Rp1641
g1
(g5
S'\x95$_?'
p1642
tp1643
Rp1644
tp1645
a(g1
(g5
S'\x95$_?'
p1646
tp1647
Rp1648
g1
(g5
S'\xfa,_?'
p1649
tp1650
Rp1651
tp1652
a(g1
(g5
S'\xfa,_?'
p1653
tp1654
Rp1655
g1
(g5
S'j5_?'
p1656
tp1657
Rp1658
tp1659
a(g1
(g5
S'j5_?'
p1660
tp1661
Rp1662
g1
(g5
S'\xdb=_?'
p1663
tp1664
Rp1665
tp1666
a(g1
(g5
S'\xdb=_?'
p1667
tp1668
Rp1669
g1
(g5
S'\xe2E_?'
p1670
tp1671
Rp1672
tp1673
a(g1
(g5
S'\xe2E_?'
p1674
tp1675
Rp1676
g1
(g5
S'HN_?'
p1677
tp1678
Rp1679
tp1680
a(g1
(g5
S'HN_?'
p1681
tp1682
Rp1683
g1
(g5
S'iV_?'
p1684
tp1685
Rp1686
tp1687
a(g1
(g5
S'iV_?'
p1688
tp1689
Rp1690
g1
(g5
S'n^_?'
p1691
tp1692
Rp1693
tp1694
a(g1
(g5
S'n^_?'
p1695
tp1696
Rp1697
g1
(g5
S'\xa6f_?'
p1698
tp1699
Rp1700
tp1701
a(g1
(g5
S'\xa6f_?'
p1702
tp1703
Rp1704
g1
(g5
S'\xaen_?'
p1705
tp1706
Rp1707
tp1708
a(g1
(g5
S'\xaen_?'
p1709
tp1710
Rp1711
g1
(g5
S'Jv_?'
p1712
tp1713
Rp1714
tp1715
a(g1
(g5
S'Jv_?'
p1716
tp1717
Rp1718
g1
(g5
S'E~_?'
p1719
tp1720
Rp1721
tp1722
a(g1
(g5
S'E~_?'
p1723
tp1724
Rp1725
g1
(g5
S'%\x86_?'
p1726
tp1727
Rp1728
tp1729
a(g1
(g5
S'%\x86_?'
p1730
tp1731
Rp1732
g1
(g5
S'\xf8\x8d_?'
p1733
tp1734
Rp1735
tp1736
a(g1
(g5
S'\xf8\x8d_?'
p1737
tp1738
Rp1739
g1
(g5
S'\xbe\x95_?'
p1740
tp1741
Rp1742
tp1743
a(g1
(g5
S'\xbe\x95_?'
p1744
tp1745
Rp1746
g1
(g5
S'<\x9d_?'
p1747
tp1748
Rp1749
tp1750
a(g1
(g5
S'<\x9d_?'
p1751
tp1752
Rp1753
g1
(g5
S'\xaf\xa4_?'
p1754
tp1755
Rp1756
tp1757
a(g1
(g5
S'\xaf\xa4_?'
p1758
tp1759
Rp1760
g1
(g5
S'3\xac_?'
p1761
tp1762
Rp1763
tp1764
a(g1
(g5
S'3\xac_?'
p1765
tp1766
Rp1767
g1
(g5
S'\xc2\xb3_?'
p1768
tp1769
Rp1770
tp1771
a(g1
(g5
S'\xc2\xb3_?'
p1772
tp1773
Rp1774
g1
(g5
S':\xbb_?'
p1775
tp1776
Rp1777
tp1778
a(g1
(g5
S':\xbb_?'
p1779
tp1780
Rp1781
g1
(g5
S'y\xc2_?'
p1782
tp1783
Rp1784
tp1785
a(g1
(g5
S'y\xc2_?'
p1786
tp1787
Rp1788
g1
(g5
S'\xcc\xc9_?'
p1789
tp1790
Rp1791
tp1792
a(g1
(g5
S'\xcc\xc9_?'
p1793
tp1794
Rp1795
g1
(g5
S'\x1a\xd1_?'
p1796
tp1797
Rp1798
tp1799
a(g1
(g5
S'\x1a\xd1_?'
p1800
tp1801
Rp1802
g1
(g5
S'l\xd8_?'
p1803
tp1804
Rp1805
tp1806
a(g1
(g5
S'l\xd8_?'
p1807
tp1808
Rp1809
g1
(g5
S'\xac\xdf_?'
p1810
tp1811
Rp1812
tp1813
a(g1
(g5
S'\xac\xdf_?'
p1814
tp1815
Rp1816
g1
(g5
S'\xc7\xe6_?'
p1817
tp1818
Rp1819
tp1820
a(g1
(g5
S'\xc7\xe6_?'
p1821
tp1822
Rp1823
g1
(g5
S'\xc9\xed_?'
p1824
tp1825
Rp1826
tp1827
a(g1
(g5
S'\xc9\xed_?'
p1828
tp1829
Rp1830
g1
(g5
S'\xcc\xf4_?'
p1831
tp1832
Rp1833
tp1834
a(g1
(g5
S'\xcc\xf4_?'
p1835
tp1836
Rp1837
g1
(g5
S'\xdb\xfb_?'
p1838
tp1839
Rp1840
tp1841
a(g1
(g5
S'\xdb\xfb_?'
p1842
tp1843
Rp1844
g1
(g5
S'\xcc\x02`?'
p1845
tp1846
Rp1847
tp1848
a(g1
(g5
S'\xcc\x02`?'
p1849
tp1850
Rp1851
g1
(g5
S'\xb5\t`?'
p1852
tp1853
Rp1854
tp1855
a(g1
(g5
S'\xb5\t`?'
p1856
tp1857
Rp1858
g1
(g5
S'\x8d\x10`?'
p1859
tp1860
Rp1861
tp1862
a(g1
(g5
S'\x8d\x10`?'
p1863
tp1864
Rp1865
g1
(g5
S'o\x17`?'
p1866
tp1867
Rp1868
tp1869
a(g1
(g5
S'o\x17`?'
p1870
tp1871
Rp1872
g1
(g5
S'6\x1e`?'
p1873
tp1874
Rp1875
tp1876
a(g1
(g5
S'6\x1e`?'
p1877
tp1878
Rp1879
g1
(g5
S'\xf5$`?'
p1880
tp1881
Rp1882
tp1883
a(g1
(g5
S'\xf5$`?'
p1884
tp1885
Rp1886
g1
(g5
S'\x92+`?'
p1887
tp1888
Rp1889
tp1890
a(g1
(g5
S'\x92+`?'
p1891
tp1892
Rp1893
g1
(g5
S'<2`?'
p1894
tp1895
Rp1896
tp1897
a(g1
(g5
S'<2`?'
p1898
tp1899
Rp1900
g1
(g5
S'\xef8`?'
p1901
tp1902
Rp1903
tp1904
a(g1
(g5
S'\xef8`?'
p1905
tp1906
Rp1907
g1
(g5
S'c?`?'
p1908
tp1909
Rp1910
tp1911
a(g1
(g5
S'c?`?'
p1912
tp1913
Rp1914
g1
(g5
S'\xf6E`?'
p1915
tp1916
Rp1917
tp1918
a(g1
(g5
S'\xf6E`?'
p1919
tp1920
Rp1921
g1
(g5
S'\x91L`?'
p1922
tp1923
Rp1924
tp1925
a(g1
(g5
S'\x91L`?'
p1926
tp1927
Rp1928
g1
(g5
S'!S`?'
p1929
tp1930
Rp1931
tp1932
a(g1
(g5
S'!S`?'
p1933
tp1934
Rp1935
g1
(g5
S'\x97Y`?'
p1936
tp1937
Rp1938
tp1939
a(g1
(g5
S'\x97Y`?'
p1940
tp1941
Rp1942
g1
(g5
S'\xf2_`?'
p1943
tp1944
Rp1945
tp1946
a(g1
(g5
S'\xf2_`?'
p1947
tp1948
Rp1949
g1
(g5
S'Nf`?'
p1950
tp1951
Rp1952
tp1953
a(g1
(g5
S'Nf`?'
p1954
tp1955
Rp1956
g1
(g5
S'\x8cl`?'
p1957
tp1958
Rp1959
tp1960
a(g1
(g5
S'\x8cl`?'
p1961
tp1962
Rp1963
g1
(g5
S'\xd7r`?'
p1964
tp1965
Rp1966
tp1967
a(g1
(g5
S'\xd7r`?'
p1968
tp1969
Rp1970
g1
(g5
S'\x02y`?'
p1971
tp1972
Rp1973
tp1974
a(g1
(g5
S'\x02y`?'
p1975
tp1976
Rp1977
g1
(g5
S'4\x7f`?'
p1978
tp1979
Rp1980
tp1981
a(g1
(g5
S'4\x7f`?'
p1982
tp1983
Rp1984
g1
(g5
S'R\x85`?'
p1985
tp1986
Rp1987
tp1988
a(g1
(g5
S'R\x85`?'
p1989
tp1990
Rp1991
g1
(g5
S'{\x8b`?'
p1992
tp1993
Rp1994
tp1995
a(g1
(g5
S'{\x8b`?'
p1996
tp1997
Rp1998
g1
(g5
S'\x84\x91`?'
p1999
tp2000
Rp2001
tp2002
a(g1
(g5
S'\x84\x91`?'
p2003
tp2004
Rp2005
g1
(g5
S'\x9a\x97`?'
p2006
tp2007
Rp2008
tp2009
a(g1
(g5
S'\x9a\x97`?'
p2010
tp2011
Rp2012
g1
(g5
S'\xa3\x9d`?'
p2013
tp2014
Rp2015
tp2016
a(g1
(g5
S'\xa3\x9d`?'
p2017
tp2018
Rp2019
g1
(g5
S'`\xa3`?'
p2020
tp2021
Rp2022
tp2023
a(g1
(g5
S'`\xa3`?'
p2024
tp2025
Rp2026
g1
(g5
S'H\xa9`?'
p2027
tp2028
Rp2029
tp2030
a(g1
(g5
S'H\xa9`?'
p2031
tp2032
Rp2033
g1
(g5
S'\x08\xaf`?'
p2034
tp2035
Rp2036
tp2037
a(g1
(g5
S'\x08\xaf`?'
p2038
tp2039
Rp2040
g1
(g5
S'\xe9\xb4`?'
p2041
tp2042
Rp2043
tp2044
a(g1
(g5
S'\xe9\xb4`?'
p2045
tp2046
Rp2047
g1
(g5
S'\x98\xba`?'
p2048
tp2049
Rp2050
tp2051
a(g1
(g5
S'\x98\xba`?'
p2052
tp2053
Rp2054
g1
(g5
S'8\xc0`?'
p2055
tp2056
Rp2057
tp2058
a(g1
(g5
S'8\xc0`?'
p2059
tp2060
Rp2061
g1
(g5
S'\xf5\xc5`?'
p2062
tp2063
Rp2064
tp2065
a(g1
(g5
S'\xf5\xc5`?'
p2066
tp2067
Rp2068
g1
(g5
S'\x86\xcb`?'
p2069
tp2070
Rp2071
tp2072
a(g1
(g5
S'\x86\xcb`?'
p2073
tp2074
Rp2075
g1
(g5
S'\x06\xd1`?'
p2076
tp2077
Rp2078
tp2079
a(g1
(g5
S'\x06\xd1`?'
p2080
tp2081
Rp2082
g1
(g5
S'\xba\xd6`?'
p2083
tp2084
Rp2085
tp2086
a(g1
(g5
S'\xba\xd6`?'
p2087
tp2088
Rp2089
g1
(g5
S'a\xdc`?'
p2090
tp2091
Rp2092
tp2093
a(g1
(g5
S'a\xdc`?'
p2094
tp2095
Rp2096
g1
(g5
S'\xc0\xe1`?'
p2097
tp2098
Rp2099
tp2100
a(g1
(g5
S'\xc0\xe1`?'
p2101
tp2102
Rp2103
g1
(g5
S']\xe7`?'
p2104
tp2105
Rp2106
tp2107
a(g1
(g5
S']\xe7`?'
p2108
tp2109
Rp2110
g1
(g5
S'\xce\xec`?'
p2111
tp2112
Rp2113
tp2114
a(g1
(g5
S'\xce\xec`?'
p2115
tp2116
Rp2117
g1
(g5
S'M\xf2`?'
p2118
tp2119
Rp2120
tp2121
a(g1
(g5
S'M\xf2`?'
p2122
tp2123
Rp2124
g1
(g5
S'\xbe\xf7`?'
p2125
tp2126
Rp2127
tp2128
a(g1
(g5
S'\xbe\xf7`?'
p2129
tp2130
Rp2131
g1
(g5
S'\xf1\xfc`?'
p2132
tp2133
Rp2134
tp2135
a(g1
(g5
S'\xf1\xfc`?'
p2136
tp2137
Rp2138
g1
(g5
S'X\x02a?'
p2139
tp2140
Rp2141
tp2142
a(g1
(g5
S'X\x02a?'
p2143
tp2144
Rp2145
g1
(g5
S'\xa4\x07a?'
p2146
tp2147
Rp2148
tp2149
a(g1
(g5
S'\xa4\x07a?'
p2150
tp2151
Rp2152
g1
(g5
S'\xc0\x0ca?'
p2153
tp2154
Rp2155
tp2156
a(g1
(g5
S'\xc0\x0ca?'
p2157
tp2158
Rp2159
g1
(g5
S'%\x12a?'
p2160
tp2161
Rp2162
tp2163
a(g1
(g5
S'%\x12a?'
p2164
tp2165
Rp2166
g1
(g5
S'r\x17a?'
p2167
tp2168
Rp2169
tp2170
a(g1
(g5
S'r\x17a?'
p2171
tp2172
Rp2173
g1
(g5
S'\xb0\x1ca?'
p2174
tp2175
Rp2176
tp2177
a(g1
(g5
S'\xb0\x1ca?'
p2178
tp2179
Rp2180
g1
(g5
S'\xf8!a?'
p2181
tp2182
Rp2183
tp2184
a(g1
(g5
S'\xf8!a?'
p2185
tp2186
Rp2187
g1
(g5
S"\x1c'a?"
p2188
tp2189
Rp2190
tp2191
a(g1
(g5
S"\x1c'a?"
p2192
tp2193
Rp2194
g1
(g5
S'D,a?'
p2195
tp2196
Rp2197
tp2198
a(g1
(g5
S'D,a?'
p2199
tp2200
Rp2201
g1
(g5
S'd1a?'
p2202
tp2203
Rp2204
tp2205
a(g1
(g5
S'd1a?'
p2206
tp2207
Rp2208
g1
(g5
S'`6a?'
p2209
tp2210
Rp2211
tp2212
a(g1
(g5
S'`6a?'
p2213
tp2214
Rp2215
g1
(g5
S'd;a?'
p2216
tp2217
Rp2218
tp2219
a(g1
(g5
S'd;a?'
p2220
tp2221
Rp2222
g1
(g5
S'o@a?'
p2223
tp2224
Rp2225
tp2226
a(g1
(g5
S'o@a?'
p2227
tp2228
Rp2229
g1
(g5
S'KEa?'
p2230
tp2231
Rp2232
tp2233
a(g1
(g5
S'KEa?'
p2234
tp2235
Rp2236
g1
(g5
S'RJa?'
p2237
tp2238
Rp2239
tp2240
a(g1
(g5
S'RJa?'
p2241
tp2242
Rp2243
g1
(g5
S'\x0fOa?'
p2244
tp2245
Rp2246
tp2247
a(g1
(g5
S'\x0fOa?'
p2248
tp2249
Rp2250
g1
(g5
S'\xfbSa?'
p2251
tp2252
Rp2253
tp2254
a(g1
(g5
S'\xfbSa?'
p2255
tp2256
Rp2257
g1
(g5
S'\xf7Xa?'
p2258
tp2259
Rp2260
tp2261
a(g1
(g5
S'\xf7Xa?'
p2262
tp2263
Rp2264
g1
(g5
S'\x7f]a?'
p2265
tp2266
Rp2267
tp2268
a(g1
(g5
S'\x7f]a?'
p2269
tp2270
Rp2271
g1
(g5
S'aba?'
p2272
tp2273
Rp2274
tp2275
a(g1
(g5
S'aba?'
p2276
tp2277
Rp2278
g1
(g5
S'Lga?'
p2279
tp2280
Rp2281
tp2282
a(g1
(g5
S'Lga?'
p2283
tp2284
Rp2285
g1
(g5
S'\xf1ka?'
p2286
tp2287
Rp2288
tp2289
a(g1
(g5
S'\xf1ka?'
p2290
tp2291
Rp2292
g1
(g5
S'\x9dpa?'
p2293
tp2294
Rp2295
tp2296
a(g1
(g5
S'\x9dpa?'
p2297
tp2298
Rp2299
g1
(g5
S'Sua?'
p2300
tp2301
Rp2302
tp2303
a(g1
(g5
S'Sua?'
p2304
tp2305
Rp2306
g1
(g5
S'\x00za?'
p2307
tp2308
Rp2309
tp2310
a(g1
(g5
S'\x00za?'
p2311
tp2312
Rp2313
g1
(g5
S'\x7f~a?'
p2314
tp2315
Rp2316
tp2317
a(g1
(g5
S'\x7f~a?'
p2318
tp2319
Rp2320
g1
(g5
S'=\x83a?'
p2321
tp2322
Rp2323
tp2324
a(g1
(g5
S'=\x83a?'
p2325
tp2326
Rp2327
g1
(g5
S'\xc6\x87a?'
p2328
tp2329
Rp2330
tp2331
a(g1
(g5
S'\xc6\x87a?'
p2332
tp2333
Rp2334
g1
(g5
S'`\x8ca?'
p2335
tp2336
Rp2337
tp2338
a(g1
(g5
S'`\x8ca?'
p2339
tp2340
Rp2341
g1
(g5
S'\xf2\x90a?'
p2342
tp2343
Rp2344
tp2345
a(g1
(g5
S'\xf2\x90a?'
p2346
tp2347
Rp2348
g1
(g5
S'i\x95a?'
p2349
tp2350
Rp2351
tp2352
a(g1
(g5
S'i\x95a?'
p2353
tp2354
Rp2355
g1
(g5
S'\xf3\x99a?'
p2356
tp2357
Rp2358
tp2359
a(g1
(g5
S'\xf3\x99a?'
p2360
tp2361
Rp2362
g1
(g5
S'g\x9ea?'
p2363
tp2364
Rp2365
tp2366
a(g1
(g5
S'g\x9ea?'
p2367
tp2368
Rp2369
g1
(g5
S'\xed\xa2a?'
p2370
tp2371
Rp2372
tp2373
a(g1
(g5
S'\xed\xa2a?'
p2374
tp2375
Rp2376
g1
(g5
S'k\xa7a?'
p2377
tp2378
Rp2379
tp2380
a(g1
(g5
S'k\xa7a?'
p2381
tp2382
Rp2383
g1
(g5
S'\xc1\xaba?'
p2384
tp2385
Rp2386
tp2387
a(g1
(g5
S'\xc1\xaba?'
p2388
tp2389
Rp2390
g1
(g5
S'\x0f\xb0a?'
p2391
tp2392
Rp2393
tp2394
a(g1
(g5
S'\x0f\xb0a?'
p2395
tp2396
Rp2397
g1
(g5
S'-\xb4a?'
p2398
tp2399
Rp2400
tp2401
a(g1
(g5
S'-\xb4a?'
p2402
tp2403
Rp2404
g1
(g5
S'g\xb8a?'
p2405
tp2406
Rp2407
tp2408
a(g1
(g5
S'g\xb8a?'
p2409
tp2410
Rp2411
g1
(g5
S'\xb9\xbca?'
p2412
tp2413
Rp2414
tp2415
a(g1
(g5
S'\xb9\xbca?'
p2416
tp2417
Rp2418
g1
(g5
S'\x02\xc1a?'
p2419
tp2420
Rp2421
tp2422
a(g1
(g5
S'\x02\xc1a?'
p2423
tp2424
Rp2425
g1
(g5
S"'\xc5a?"
p2426
tp2427
Rp2428
tp2429
a(g1
(g5
S"'\xc5a?"
p2430
tp2431
Rp2432
g1
(g5
S'r\xc9a?'
p2433
tp2434
Rp2435
tp2436
a(g1
(g5
S'r\xc9a?'
p2437
tp2438
Rp2439
g1
(g5
S'\xaf\xcda?'
p2440
tp2441
Rp2442
tp2443
a(g1
(g5
S'\xaf\xcda?'
p2444
tp2445
Rp2446
g1
(g5
S'\xeb\xd1a?'
p2447
tp2448
Rp2449
tp2450
a(g1
(g5
S'\xeb\xd1a?'
p2451
tp2452
Rp2453
g1
(g5
S'\r\xd6a?'
p2454
tp2455
Rp2456
tp2457
a(g1
(g5
S'\r\xd6a?'
p2458
tp2459
Rp2460
g1
(g5
S'6\xdaa?'
p2461
tp2462
Rp2463
tp2464
a(g1
(g5
S'6\xdaa?'
p2465
tp2466
Rp2467
g1
(g5
S'U\xdea?'
p2468
tp2469
Rp2470
tp2471
a(g1
(g5
S'U\xdea?'
p2472
tp2473
Rp2474
g1
(g5
S'`\xe2a?'
p2475
tp2476
Rp2477
tp2478
a(g1
(g5
S'`\xe2a?'
p2479
tp2480
Rp2481
g1
(g5
S'u\xe6a?'
p2482
tp2483
Rp2484
tp2485
a(g1
(g5
S'u\xe6a?'
p2486
tp2487
Rp2488
g1
(g5
S'\xa0\xeaa?'
p2489
tp2490
Rp2491
tp2492
a(g1
(g5
S'\xa0\xeaa?'
p2493
tp2494
Rp2495
g1
(g5
S'\xc4\xeea?'
p2496
tp2497
Rp2498
tp2499
a(g1
(g5
S'\xc4\xeea?'
p2500
tp2501
Rp2502
g1
(g5
S'\xd4\xf2a?'
p2503
tp2504
Rp2505
tp2506
a(g1
(g5
S'\xd4\xf2a?'
p2507
tp2508
Rp2509
g1
(g5
S'\xd2\xf6a?'
p2510
tp2511
Rp2512
tp2513
a(g1
(g5
S'\xd2\xf6a?'
p2514
tp2515
Rp2516
g1
(g5
S'\xc8\xfaa?'
p2517
tp2518
Rp2519
tp2520
a(g1
(g5
S'\xc8\xfaa?'
p2521
tp2522
Rp2523
g1
(g5
S'\xcb\xfea?'
p2524
tp2525
Rp2526
tp2527
a(g1
(g5
S'\xcb\xfea?'
p2528
tp2529
Rp2530
g1
(g5
S'\xb6\x02b?'
p2531
tp2532
Rp2533
tp2534
a(g1
(g5
S'\xb6\x02b?'
p2535
tp2536
Rp2537
g1
(g5
S'\x97\x06b?'
p2538
tp2539
Rp2540
tp2541
a(g1
(g5
S'\x97\x06b?'
p2542
tp2543
Rp2544
g1
(g5
S'v\nb?'
p2545
tp2546
Rp2547
tp2548
a(g1
(g5
S'v\nb?'
p2549
tp2550
Rp2551
g1
(g5
S'm\x0eb?'
p2552
tp2553
Rp2554
tp2555
a(g1
(g5
S'm\x0eb?'
p2556
tp2557
Rp2558
g1
(g5
S'\x14\x12b?'
p2559
tp2560
Rp2561
tp2562
a(g1
(g5
S'\x14\x12b?'
p2563
tp2564
Rp2565
g1
(g5
S'\xfb\x15b?'
p2566
tp2567
Rp2568
tp2569
a(g1
(g5
S'\xfb\x15b?'
p2570
tp2571
Rp2572
g1
(g5
S'\xd0\x19b?'
p2573
tp2574
Rp2575
tp2576
a(g1
(g5
S'\xd0\x19b?'
p2577
tp2578
Rp2579
g1
(g5
S'\xb2\x1db?'
p2580
tp2581
Rp2582
tp2583
a(g1
(g5
S'\xb2\x1db?'
p2584
tp2585
Rp2586
g1
(g5
S'\x8e!b?'
p2587
tp2588
Rp2589
tp2590
a(g1
(g5
S'\x8e!b?'
p2591
tp2592
Rp2593
g1
(g5
S'c%b?'
p2594
tp2595
Rp2596
tp2597
a(g1
(g5
S'c%b?'
p2598
tp2599
Rp2600
g1
(g5
S'\x0b)b?'
p2601
tp2602
Rp2603
tp2604
a(g1
(g5
S'\x0b)b?'
p2605
tp2606
Rp2607
g1
(g5
S'\xbc,b?'
p2608
tp2609
Rp2610
tp2611
a(g1
(g5
S'\xbc,b?'
p2612
tp2613
Rp2614
g1
(g5
S'W0b?'
p2615
tp2616
Rp2617
tp2618
a(g1
(g5
S'W0b?'
p2619
tp2620
Rp2621
g1
(g5
S"'4b?"
p2622
tp2623
Rp2624
tp2625
a(g1
(g5
S"'4b?"
p2626
tp2627
Rp2628
g1
(g5
S'\xe87b?'
p2629
tp2630
Rp2631
tp2632
a(g1
(g5
S'\xe87b?'
p2633
tp2634
Rp2635
g1
(g5
S'\xa4;b?'
p2636
tp2637
Rp2638
tp2639
a(g1
(g5
S'\xa4;b?'
p2640
tp2641
Rp2642
g1
(g5
S'D?b?'
p2643
tp2644
Rp2645
tp2646
a(g1
(g5
S'D?b?'
p2647
tp2648
Rp2649
g1
(g5
S'\xf9Bb?'
p2650
tp2651
Rp2652
tp2653
a(g1
(g5
S'\xf9Bb?'
p2654
tp2655
Rp2656
g1
(g5
S'\x97Fb?'
p2657
tp2658
Rp2659
tp2660
a(g1
(g5
S'\x97Fb?'
p2661
tp2662
Rp2663
g1
(g5
S'&Jb?'
p2664
tp2665
Rp2666
tp2667
a(g1
(g5
S'&Jb?'
p2668
tp2669
Rp2670
g1
(g5
S'\xc7Mb?'
p2671
tp2672
Rp2673
tp2674
a(g1
(g5
S'\xc7Mb?'
p2675
tp2676
Rp2677
g1
(g5
S'UQb?'
p2678
tp2679
Rp2680
tp2681
a(g1
(g5
S'UQb?'
p2682
tp2683
Rp2684
g1
(g5
S'\xdbTb?'
p2685
tp2686
Rp2687
tp2688
a(g1
(g5
S'\xdbTb?'
p2689
tp2690
Rp2691
g1
(g5
S'jXb?'
p2692
tp2693
Rp2694
tp2695
a(g1
(g5
S'jXb?'
p2696
tp2697
Rp2698
g1
(g5
S'\xe4[b?'
p2699
tp2700
Rp2701
tp2702
a(g1
(g5
S'\xe4[b?'
p2703
tp2704
Rp2705
g1
(g5
S'r_b?'
p2706
tp2707
Rp2708
tp2709
a(g1
(g5
S'r_b?'
p2710
tp2711
Rp2712
g1
(g5
S'\xe0bb?'
p2713
tp2714
Rp2715
tp2716
a(g1
(g5
S'\xe0bb?'
p2717
tp2718
Rp2719
g1
(g5
S'4fb?'
p2720
tp2721
Rp2722
tp2723
a(g1
(g5
S'4fb?'
p2724
tp2725
Rp2726
g1
(g5
S'\x96ib?'
p2727
tp2728
Rp2729
tp2730
a(g1
(g5
S'\x96ib?'
p2731
tp2732
Rp2733
g1
(g5
S'1mb?'
p2734
tp2735
Rp2736
tp2737
a(g1
(g5
S'1mb?'
p2738
tp2739
Rp2740
g1
(g5
S'\xa4pb?'
p2741
tp2742
Rp2743
tp2744
a(g1
(g5
S'\xa4pb?'
p2745
tp2746
Rp2747
g1
(g5
S'\x19tb?'
p2748
tp2749
Rp2750
tp2751
a(g1
(g5
S'\x19tb?'
p2752
tp2753
Rp2754
g1
(g5
S'\x82wb?'
p2755
tp2756
Rp2757
tp2758
a(g1
(g5
S'\x82wb?'
p2759
tp2760
Rp2761
g1
(g5
S'\xf0zb?'
p2762
tp2763
Rp2764
tp2765
a(g1
(g5
S'\xf0zb?'
p2766
tp2767
Rp2768
g1
(g5
S'Q~b?'
p2769
tp2770
Rp2771
tp2772
a(g1
(g5
S'Q~b?'
p2773
tp2774
Rp2775
g1
(g5
S'\x9d\x81b?'
p2776
tp2777
Rp2778
tp2779
a(g1
(g5
S'\x9d\x81b?'
p2780
tp2781
Rp2782
g1
(g5
S'\xfc\x84b?'
p2783
tp2784
Rp2785
tp2786
a(g1
(g5
S'\xfc\x84b?'
p2787
tp2788
Rp2789
g1
(g5
S'[\x88b?'
p2790
tp2791
Rp2792
tp2793
a(g1
(g5
S'[\x88b?'
p2794
tp2795
Rp2796
g1
(g5
S'\xbf\x8bb?'
p2797
tp2798
Rp2799
tp2800
a(g1
(g5
S'\xbf\x8bb?'
p2801
tp2802
Rp2803
g1
(g5
S'\x12\x8fb?'
p2804
tp2805
Rp2806
tp2807
a(g1
(g5
S'\x12\x8fb?'
p2808
tp2809
Rp2810
g1
(g5
S'X\x92b?'
p2811
tp2812
Rp2813
tp2814
a(g1
(g5
S'X\x92b?'
p2815
tp2816
Rp2817
g1
(g5
S'\x9f\x95b?'
p2818
tp2819
Rp2820
tp2821
a(g1
(g5
S'\x9f\x95b?'
p2822
tp2823
Rp2824
g1
(g5
S'\xa1\x98b?'
p2825
tp2826
Rp2827
tp2828
a(g1
(g5
S'\xa1\x98b?'
p2829
tp2830
Rp2831
g1
(g5
S'\xd7\x9bb?'
p2832
tp2833
Rp2834
tp2835
a(g1
(g5
S'\xd7\x9bb?'
p2836
tp2837
Rp2838
g1
(g5
S'\n\x9fb?'
p2839
tp2840
Rp2841
tp2842
a(g1
(g5
S'\n\x9fb?'
p2843
tp2844
Rp2845
g1
(g5
S'B\xa2b?'
p2846
tp2847
Rp2848
tp2849
a(g1
(g5
S'B\xa2b?'
p2850
tp2851
Rp2852
g1
(g5
S'\x84\xa5b?'
p2853
tp2854
Rp2855
tp2856
a(g1
(g5
S'\x84\xa5b?'
p2857
tp2858
Rp2859
g1
(g5
S'\xb8\xa8b?'
p2860
tp2861
Rp2862
tp2863
a(g1
(g5
S'\xb8\xa8b?'
p2864
tp2865
Rp2866
g1
(g5
S'\xe4\xabb?'
p2867
tp2868
Rp2869
tp2870
a(g1
(g5
S'\xe4\xabb?'
p2871
tp2872
Rp2873
g1
(g5
S'\xfe\xaeb?'
p2874
tp2875
Rp2876
tp2877
a(g1
(g5
S'\xfe\xaeb?'
p2878
tp2879
Rp2880
g1
(g5
S'\x1e\xb2b?'
p2881
tp2882
Rp2883
tp2884
a(g1
(g5
S'\x1e\xb2b?'
p2885
tp2886
Rp2887
g1
(g5
S'4\xb5b?'
p2888
tp2889
Rp2890
tp2891
a(g1
(g5
S'4\xb5b?'
p2892
tp2893
Rp2894
g1
(g5
S'a\xb8b?'
p2895
tp2896
Rp2897
tp2898
a(g1
(g5
S'a\xb8b?'
p2899
tp2900
Rp2901
g1
(g5
S'}\xbbb?'
p2902
tp2903
Rp2904
tp2905
a(g1
(g5
S'}\xbbb?'
p2906
tp2907
Rp2908
g1
(g5
S'\x8c\xbeb?'
p2909
tp2910
Rp2911
tp2912
a(g1
(g5
S'\x8c\xbeb?'
p2913
tp2914
Rp2915
g1
(g5
S'\xa2\xc1b?'
p2916
tp2917
Rp2918
tp2919
a(g1
(g5
S'\xa2\xc1b?'
p2920
tp2921
Rp2922
g1
(g5
S'\xa6\xc4b?'
p2923
tp2924
Rp2925
tp2926
a(g1
(g5
S'\xa6\xc4b?'
p2927
tp2928
Rp2929
g1
(g5
S'\xb3\xc7b?'
p2930
tp2931
Rp2932
tp2933
a(g1
(g5
S'\xb3\xc7b?'
p2934
tp2935
Rp2936
g1
(g5
S'\xc0\xcab?'
p2937
tp2938
Rp2939
tp2940
a(g1
(g5
S'\xc0\xcab?'
p2941
tp2942
Rp2943
g1
(g5
S'\xd5\xcdb?'
p2944
tp2945
Rp2946
tp2947
a(g1
(g5
S'\xd5\xcdb?'
p2948
tp2949
Rp2950
g1
(g5
S'\xcc\xd0b?'
p2951
tp2952
Rp2953
tp2954
a(g1
(g5
S'\xcc\xd0b?'
p2955
tp2956
Rp2957
g1
(g5
S'\xb9\xd3b?'
p2958
tp2959
Rp2960
tp2961
a(g1
(g5
S'\xb9\xd3b?'
p2962
tp2963
Rp2964
g1
(g5
S'\xa2\xd6b?'
p2965
tp2966
Rp2967
tp2968
a(g1
(g5
S'\xa2\xd6b?'
p2969
tp2970
Rp2971
g1
(g5
S'\xa5\xd9b?'
p2972
tp2973
Rp2974
tp2975
a(g1
(g5
S'\xa5\xd9b?'
p2976
tp2977
Rp2978
g1
(g5
S'\x84\xdcb?'
p2979
tp2980
Rp2981
tp2982
a(g1
(g5
S'\x84\xdcb?'
p2983
tp2984
Rp2985
g1
(g5
S'n\xdfb?'
p2986
tp2987
Rp2988
tp2989
a(g1
(g5
S'n\xdfb?'
p2990
tp2991
Rp2992
g1
(g5
S'_\xe2b?'
p2993
tp2994
Rp2995
tp2996
a(g1
(g5
S'_\xe2b?'
p2997
tp2998
Rp2999
g1
(g5
S'T\xe5b?'
p3000
tp3001
Rp3002
tp3003
a(g1
(g5
S'T\xe5b?'
p3004
tp3005
Rp3006
g1
(g5
S'(\xe8b?'
p3007
tp3008
Rp3009
tp3010
a(g1
(g5
S'(\xe8b?'
p3011
tp3012
Rp3013
g1
(g5
S'\x11\xebb?'
p3014
tp3015
Rp3016
tp3017
a(g1
(g5
S'\x11\xebb?'
p3018
tp3019
Rp3020
g1
(g5
S'\x06\xeeb?'
p3021
tp3022
Rp3023
tp3024
a(g1
(g5
S'\x06\xeeb?'
p3025
tp3026
Rp3027
g1
(g5
S'\xe5\xf0b?'
p3028
tp3029
Rp3030
tp3031
a(g1
(g5
S'\xe5\xf0b?'
p3032
tp3033
Rp3034
g1
(g5
S'\xc7\xf3b?'
p3035
tp3036
Rp3037
tp3038
a(g1
(g5
S'\xc7\xf3b?'
p3039
tp3040
Rp3041
g1
(g5
S'\xab\xf6b?'
p3042
tp3043
Rp3044
tp3045
a(g1
(g5
S'\xab\xf6b?'
p3046
tp3047
Rp3048
g1
(g5
S'\x86\xf9b?'
p3049
tp3050
Rp3051
tp3052
a(g1
(g5
S'\x86\xf9b?'
p3053
tp3054
Rp3055
g1
(g5
S'a\xfcb?'
p3056
tp3057
Rp3058
tp3059
a(g1
(g5
S'a\xfcb?'
p3060
tp3061
Rp3062
g1
(g5
S'\x1c\xffb?'
p3063
tp3064
Rp3065
tp3066
a(g1
(g5
S'\x1c\xffb?'
p3067
tp3068
Rp3069
g1
(g5
S'\xe4\x01c?'
p3070
tp3071
Rp3072
tp3073
a(g1
(g5
S'\xe4\x01c?'
p3074
tp3075
Rp3076
g1
(g5
S'\xa6\x04c?'
p3077
tp3078
Rp3079
tp3080
a(g1
(g5
S'\xa6\x04c?'
p3081
tp3082
Rp3083
g1
(g5
S'n\x07c?'
p3084
tp3085
Rp3086
tp3087
a(g1
(g5
S'n\x07c?'
p3088
tp3089
Rp3090
g1
(g5
S'#\nc?'
p3091
tp3092
Rp3093
tp3094
a(g1
(g5
S'#\nc?'
p3095
tp3096
Rp3097
g1
(g5
S'\xce\x0cc?'
p3098
tp3099
Rp3100
tp3101
a(g1
(g5
S'\xce\x0cc?'
p3102
tp3103
Rp3104
g1
(g5
S'\x89\x0fc?'
p3105
tp3106
Rp3107
tp3108
a(g1
(g5
S'\x89\x0fc?'
p3109
tp3110
Rp3111
g1
(g5
S'E\x12c?'
p3112
tp3113
Rp3114
tp3115
a(g1
(g5
S'E\x12c?'
p3116
tp3117
Rp3118
g1
(g5
S'\t\x15c?'
p3119
tp3120
Rp3121
tp3122
a(g1
(g5
S'\t\x15c?'
p3123
tp3124
Rp3125
g1
(g5
S'\xc3\x17c?'
p3126
tp3127
Rp3128
tp3129
a(g1
(g5
S'\xc3\x17c?'
p3130
tp3131
Rp3132
g1
(g5
S'\x86\x1ac?'
p3133
tp3134
Rp3135
tp3136
a(g1
(g5
S'\x86\x1ac?'
p3137
tp3138
Rp3139
g1
(g5
S'\x1b\x1dc?'
p3140
tp3141
Rp3142
tp3143
a(g1
(g5
S'\x1b\x1dc?'
p3144
tp3145
Rp3146
g1
(g5
S'\xb4\x1fc?'
p3147
tp3148
Rp3149
tp3150
a(g1
(g5
S'\xb4\x1fc?'
p3151
tp3152
Rp3153
g1
(g5
S'i"c?'
p3154
tp3155
Rp3156
tp3157
a(g1
(g5
S'i"c?'
p3158
tp3159
Rp3160
g1
(g5
S'\xfd$c?'
p3161
tp3162
Rp3163
tp3164
a(g1
(g5
S'\xfd$c?'
p3165
tp3166
Rp3167
g1
(g5
S"\x99'c?"
p3168
tp3169
Rp3170
tp3171
a(g1
(g5
S"\x99'c?"
p3172
tp3173
Rp3174
g1
(g5
S'C*c?'
p3175
tp3176
Rp3177
tp3178
a(g1
(g5
S'C*c?'
p3179
tp3180
Rp3181
g1
(g5
S'\xe1,c?'
p3182
tp3183
Rp3184
tp3185
a(g1
(g5
S'\xe1,c?'
p3186
tp3187
Rp3188
g1
(g5
S'm/c?'
p3189
tp3190
Rp3191
tp3192
a(g1
(g5
S'm/c?'
p3193
tp3194
Rp3195
g1
(g5
S'\x0b2c?'
p3196
tp3197
Rp3198
tp3199
a(g1
(g5
S'\x0b2c?'
p3200
tp3201
Rp3202
g1
(g5
S'\xb34c?'
p3203
tp3204
Rp3205
tp3206
a(g1
(g5
S'\xb34c?'
p3207
tp3208
Rp3209
g1
(g5
S'@7c?'
p3210
tp3211
Rp3212
tp3213
a(g1
(g5
S'@7c?'
p3214
tp3215
Rp3216
g1
(g5
S'\xc29c?'
p3217
tp3218
Rp3219
tp3220
a(g1
(g5
S'\xc29c?'
p3221
tp3222
Rp3223
g1
(g5
S'G<c?'
p3224
tp3225
Rp3226
tp3227
a(g1
(g5
S'G<c?'
p3228
tp3229
Rp3230
g1
(g5
S'\xca>c?'
p3231
tp3232
Rp3233
tp3234
a(g1
(g5
S'\xca>c?'
p3235
tp3236
Rp3237
g1
(g5
S'TAc?'
p3238
tp3239
Rp3240
tp3241
a(g1
(g5
S'TAc?'
p3242
tp3243
Rp3244
g1
(g5
S'\xd8Cc?'
p3245
tp3246
Rp3247
tp3248
a(g1
(g5
S'\xd8Cc?'
p3249
tp3250
Rp3251
g1
(g5
S'AFc?'
p3252
tp3253
Rp3254
tp3255
a(g1
(g5
S'AFc?'
p3256
tp3257
Rp3258
g1
(g5
S'\xadHc?'
p3259
tp3260
Rp3261
tp3262
a(g1
(g5
S'\xadHc?'
p3263
tp3264
Rp3265
g1
(g5
S"'Kc?"
p3266
tp3267
Rp3268
tp3269
a(g1
(g5
S"'Kc?"
p3270
tp3271
Rp3272
g1
(g5
S'\xa2Mc?'
p3273
tp3274
Rp3275
tp3276
a(g1
(g5
S'\xa2Mc?'
p3277
tp3278
Rp3279
g1
(g5
S'%Pc?'
p3280
tp3281
Rp3282
tp3283
a(g1
(g5
S'%Pc?'
p3284
tp3285
Rp3286
g1
(g5
S'\x8bRc?'
p3287
tp3288
Rp3289
tp3290
a(g1
(g5
S'\x8bRc?'
p3291
tp3292
Rp3293
g1
(g5
S'\xfbTc?'
p3294
tp3295
Rp3296
tp3297
a(g1
(g5
S'\xfbTc?'
p3298
tp3299
Rp3300
g1
(g5
S'tWc?'
p3301
tp3302
Rp3303
tp3304
a(g1
(g5
S'tWc?'
p3305
tp3306
Rp3307
g1
(g5
S'\xeaYc?'
p3308
tp3309
Rp3310
tp3311
a(g1
(g5
S'\xeaYc?'
p3312
tp3313
Rp3314
g1
(g5
S'Y\\c?'
p3315
tp3316
Rp3317
tp3318
a(g1
(g5
S'Y\\c?'
p3319
tp3320
Rp3321
g1
(g5
S'\xbe^c?'
p3322
tp3323
Rp3324
tp3325
a(g1
(g5
S'\xbe^c?'
p3326
tp3327
Rp3328
g1
(g5
S'\x14ac?'
p3329
tp3330
Rp3331
tp3332
a(g1
(g5
S'\x14ac?'
p3333
tp3334
Rp3335
g1
(g5
S'|cc?'
p3336
tp3337
Rp3338
tp3339
a(g1
(g5
S'|cc?'
p3340
tp3341
Rp3342
g1
(g5
S'\xd8ec?'
p3343
tp3344
Rp3345
tp3346
a(g1
(g5
S'\xd8ec?'
p3347
tp3348
Rp3349
g1
(g5
S'=hc?'
p3350
tp3351
Rp3352
tp3353
a(g1
(g5
S'=hc?'
p3354
tp3355
Rp3356
g1
(g5
S'\x9cjc?'
p3357
tp3358
Rp3359
tp3360
a(g1
(g5
S'\x9cjc?'
p3361
tp3362
Rp3363
g1
(g5
S'\xeclc?'
p3364
tp3365
Rp3366
tp3367
a(g1
(g5
S'\xeclc?'
p3368
tp3369
Rp3370
g1
(g5
S'Joc?'
p3371
tp3372
Rp3373
tp3374
a(g1
(g5
S'Joc?'
p3375
tp3376
Rp3377
g1
(g5
S'\xa3qc?'
p3378
tp3379
Rp3380
tp3381
a(g1
(g5
S'\xa3qc?'
p3382
tp3383
Rp3384
g1
(g5
S'\xedsc?'
p3385
tp3386
Rp3387
tp3388
a(g1
(g5
S'\xedsc?'
p3389
tp3390
Rp3391
g1
(g5
S'7vc?'
p3392
tp3393
Rp3394
tp3395
a(g1
(g5
S'7vc?'
p3396
tp3397
Rp3398
g1
(g5
S'\x95xc?'
p3399
tp3400
Rp3401
tp3402
a(g1
(g5
S'\x95xc?'
p3403
tp3404
Rp3405
g1
(g5
S'\xeazc?'
p3406
tp3407
Rp3408
tp3409
a(g1
(g5
S'\xeazc?'
p3410
tp3411
Rp3412
g1
(g5
S'=}c?'
p3413
tp3414
Rp3415
tp3416
a(g1
(g5
S'=}c?'
p3417
tp3418
Rp3419
g1
(g5
S'\x8d\x7fc?'
p3420
tp3421
Rp3422
tp3423
a(g1
(g5
S'\x8d\x7fc?'
p3424
tp3425
Rp3426
g1
(g5
S'\xdc\x81c?'
p3427
tp3428
Rp3429
tp3430
a(g1
(g5
S'\xdc\x81c?'
p3431
tp3432
Rp3433
g1
(g5
S'\x17\x84c?'
p3434
tp3435
Rp3436
tp3437
a(g1
(g5
S'\x17\x84c?'
p3438
tp3439
Rp3440
g1
(g5
S'a\x86c?'
p3441
tp3442
Rp3443
tp3444
a(g1
(g5
S'a\x86c?'
p3445
tp3446
Rp3447
g1
(g5
S'\xa8\x88c?'
p3448
tp3449
Rp3450
tp3451
a(g1
(g5
S'\xa8\x88c?'
p3452
tp3453
Rp3454
g1
(g5
S'\xea\x8ac?'
p3455
tp3456
Rp3457
tp3458
a(g1
(g5
S'\xea\x8ac?'
p3459
tp3460
Rp3461
g1
(g5
S'1\x8dc?'
p3462
tp3463
Rp3464
tp3465
a(g1
(g5
S'1\x8dc?'
p3466
tp3467
Rp3468
g1
(g5
S'z\x8fc?'
p3469
tp3470
Rp3471
tp3472
a(g1
(g5
S'z\x8fc?'
p3473
tp3474
Rp3475
g1
(g5
S'\xb3\x91c?'
p3476
tp3477
Rp3478
tp3479
a(g1
(g5
S'\xb3\x91c?'
p3480
tp3481
Rp3482
g1
(g5
S'\xed\x93c?'
p3483
tp3484
Rp3485
tp3486
a(g1
(g5
S'\xed\x93c?'
p3487
tp3488
Rp3489
g1
(g5
S'2\x96c?'
p3490
tp3491
Rp3492
tp3493
a(g1
(g5
S'2\x96c?'
p3494
tp3495
Rp3496
g1
(g5
S'k\x98c?'
p3497
tp3498
Rp3499
tp3500
a(g1
(g5
S'k\x98c?'
p3501
tp3502
Rp3503
g1
(g5
S'\xa6\x9ac?'
p3504
tp3505
Rp3506
tp3507
a(g1
(g5
S'\xa6\x9ac?'
p3508
tp3509
Rp3510
g1
(g5
S'\xd9\x9cc?'
p3511
tp3512
Rp3513
tp3514
a(g1
(g5
S'\xd9\x9cc?'
p3515
tp3516
Rp3517
g1
(g5
S'\x02\x9fc?'
p3518
tp3519
Rp3520
tp3521
a(g1
(g5
S'\x02\x9fc?'
p3522
tp3523
Rp3524
g1
(g5
S'4\xa1c?'
p3525
tp3526
Rp3527
tp3528
a(g1
(g5
S'4\xa1c?'
p3529
tp3530
Rp3531
g1
(g5
S'`\xa3c?'
p3532
tp3533
Rp3534
tp3535
a(g1
(g5
S'`\xa3c?'
p3536
tp3537
Rp3538
g1
(g5
S'\x91\xa5c?'
p3539
tp3540
Rp3541
tp3542
a(g1
(g5
S'\x91\xa5c?'
p3543
tp3544
Rp3545
g1
(g5
S'\xba\xa7c?'
p3546
tp3547
Rp3548
tp3549
a(g1
(g5
S'\xba\xa7c?'
p3550
tp3551
Rp3552
g1
(g5
S'\xd8\xa9c?'
p3553
tp3554
Rp3555
tp3556
a(g1
(g5
S'\xd8\xa9c?'
p3557
tp3558
Rp3559
g1
(g5
S'\x0b\xacc?'
p3560
tp3561
Rp3562
tp3563
a(g1
(g5
S'\x0b\xacc?'
p3564
tp3565
Rp3566
g1
(g5
S'*\xaec?'
p3567
tp3568
Rp3569
tp3570
a(g1
(g5
S'*\xaec?'
p3571
tp3572
Rp3573
g1
(g5
S'L\xb0c?'
p3574
tp3575
Rp3576
tp3577
a(g1
(g5
S'L\xb0c?'
p3578
tp3579
Rp3580
g1
(g5
S'l\xb2c?'
p3581
tp3582
Rp3583
tp3584
a(g1
(g5
S'l\xb2c?'
p3585
tp3586
Rp3587
g1
(g5
S'}\xb4c?'
p3588
tp3589
Rp3590
tp3591
a(g1
(g5
S'}\xb4c?'
p3592
tp3593
Rp3594
g1
(g5
S'\x8c\xb6c?'
p3595
tp3596
Rp3597
tp3598
a(g1
(g5
S'\x8c\xb6c?'
p3599
tp3600
Rp3601
g1
(g5
S'\xae\xb8c?'
p3602
tp3603
Rp3604
tp3605
a(g1
(g5
S'\xae\xb8c?'
p3606
tp3607
Rp3608
g1
(g5
S'\xb7\xbac?'
p3609
tp3610
Rp3611
tp3612
a(g1
(g5
S'\xb7\xbac?'
p3613
tp3614
Rp3615
g1
(g5
S'\xc4\xbcc?'
p3616
tp3617
Rp3618
tp3619
a(g1
(g5
S'\xc4\xbcc?'
p3620
tp3621
Rp3622
g1
(g5
S'\xd2\xbec?'
p3623
tp3624
Rp3625
tp3626
a(g1
(g5
S'\xd2\xbec?'
p3627
tp3628
Rp3629
g1
(g5
S'\xcc\xc0c?'
p3630
tp3631
Rp3632
tp3633
a(g1
(g5
S'\xcc\xc0c?'
p3634
tp3635
Rp3636
g1
(g5
S'\xe3\xc2c?'
p3637
tp3638
Rp3639
tp3640
a(g1
(g5
S'\xe3\xc2c?'
p3641
tp3642
Rp3643
g1
(g5
S'\xed\xc4c?'
p3644
tp3645
Rp3646
tp3647
a(g1
(g5
S'\xed\xc4c?'
p3648
tp3649
Rp3650
g1
(g5
S'\xf9\xc6c?'
p3651
tp3652
Rp3653
tp3654
a(g1
(g5
S'\xf9\xc6c?'
p3655
tp3656
Rp3657
g1
(g5
S'\xff\xc8c?'
p3658
tp3659
Rp3660
tp3661
a(g1
(g5
S'\xff\xc8c?'
p3662
tp3663
Rp3664
g1
(g5
S'\xf2\xcac?'
p3665
tp3666
Rp3667
tp3668
a(g1
(g5
S'\xf2\xcac?'
p3669
tp3670
Rp3671
g1
(g5
S'\xf1\xccc?'
p3672
tp3673
Rp3674
tp3675
a(g1
(g5
S'\xf1\xccc?'
p3676
tp3677
Rp3678
g1
(g5
S'\xfd\xcec?'
p3679
tp3680
Rp3681
tp3682
a(g1
(g5
S'\xfd\xcec?'
p3683
tp3684
Rp3685
g1
(g5
S'\xeb\xd0c?'
p3686
tp3687
Rp3688
tp3689
a(g1
(g5
S'\xeb\xd0c?'
p3690
tp3691
Rp3692
g1
(g5
S'\xeb\xd2c?'
p3693
tp3694
Rp3695
tp3696
a(g1
(g5
S'\xeb\xd2c?'
p3697
tp3698
Rp3699
g1
(g5
S'\xec\xd4c?'
p3700
tp3701
Rp3702
tp3703
a(g1
(g5
S'\xec\xd4c?'
p3704
tp3705
Rp3706
g1
(g5
S'\xe4\xd6c?'
p3707
tp3708
Rp3709
tp3710
a(g1
(g5
S'\xe4\xd6c?'
p3711
tp3712
Rp3713
g1
(g5
S'\xcb\xd8c?'
p3714
tp3715
Rp3716
tp3717
a(g1
(g5
S'\xcb\xd8c?'
p3718
tp3719
Rp3720
g1
(g5
S'\xc9\xdac?'
p3721
tp3722
Rp3723
tp3724
a(g1
(g5
S'\xc9\xdac?'
p3725
tp3726
Rp3727
g1
(g5
S'\xd0\xdcc?'
p3728
tp3729
Rp3730
tp3731
a(g1
(g5
S'\xd0\xdcc?'
p3732
tp3733
Rp3734
g1
(g5
S'\xbe\xdec?'
p3735
tp3736
Rp3737
tp3738
a(g1
(g5
S'\xbe\xdec?'
p3739
tp3740
Rp3741
g1
(g5
S'\xb9\xe0c?'
p3742
tp3743
Rp3744
tp3745
a(g1
(g5
S'\xb9\xe0c?'
p3746
tp3747
Rp3748
g1
(g5
S'\xa5\xe2c?'
p3749
tp3750
Rp3751
tp3752
a(g1
(g5
S'\xa5\xe2c?'
p3753
tp3754
Rp3755
g1
(g5
S'\x9c\xe4c?'
p3756
tp3757
Rp3758
tp3759
a(g1
(g5
S'\x9c\xe4c?'
p3760
tp3761
Rp3762
g1
(g5
S'\x83\xe6c?'
p3763
tp3764
Rp3765
tp3766
a(g1
(g5
S'\x83\xe6c?'
p3767
tp3768
Rp3769
g1
(g5
S'c\xe8c?'
p3770
tp3771
Rp3772
tp3773
a(g1
(g5
S'c\xe8c?'
p3774
tp3775
Rp3776
g1
(g5
S'E\xeac?'
p3777
tp3778
Rp3779
tp3780
a(g1
(g5
S'E\xeac?'
p3781
tp3782
Rp3783
g1
(g5
S'8\xecc?'
p3784
tp3785
Rp3786
tp3787
a(g1
(g5
S'8\xecc?'
p3788
tp3789
Rp3790
g1
(g5
S'\x12\xeec?'
p3791
tp3792
Rp3793
tp3794
a(g1
(g5
S'\x12\xeec?'
p3795
tp3796
Rp3797
g1
(g5
S'\xfa\xefc?'
p3798
tp3799
Rp3800
tp3801
a(g1
(g5
S'\xfa\xefc?'
p3802
tp3803
Rp3804
g1
(g5
S'\xd9\xf1c?'
p3805
tp3806
Rp3807
tp3808
a(g1
(g5
S'\xd9\xf1c?'
p3809
tp3810
Rp3811
g1
(g5
S'\xbd\xf3c?'
p3812
tp3813
Rp3814
tp3815
a(g1
(g5
S'\xbd\xf3c?'
p3816
tp3817
Rp3818
g1
(g5
S'\x95\xf5c?'
p3819
tp3820
Rp3821
tp3822
a(g1
(g5
S'\x95\xf5c?'
p3823
tp3824
Rp3825
g1
(g5
S'y\xf7c?'
p3826
tp3827
Rp3828
tp3829
a(g1
(g5
S'y\xf7c?'
p3830
tp3831
Rp3832
g1
(g5
S'Q\xf9c?'
p3833
tp3834
Rp3835
tp3836
a(g1
(g5
S'Q\xf9c?'
p3837
tp3838
Rp3839
g1
(g5
S'\x17\xfbc?'
p3840
tp3841
Rp3842
tp3843
a(g1
(g5
S'\x17\xfbc?'
p3844
tp3845
Rp3846
g1
(g5
S'\xf8\xfcc?'
p3847
tp3848
Rp3849
tp3850
a(g1
(g5
S'\xf8\xfcc?'
p3851
tp3852
Rp3853
g1
(g5
S'\xc8\xfec?'
p3854
tp3855
Rp3856
tp3857
a(g1
(g5
S'\xc8\xfec?'
p3858
tp3859
Rp3860
g1
(g5
S'\xa2\x00d?'
p3861
tp3862
Rp3863
tp3864
a(g1
(g5
S'\xa2\x00d?'
p3865
tp3866
Rp3867
g1
(g5
S'f\x02d?'
p3868
tp3869
Rp3870
tp3871
a(g1
(g5
S'f\x02d?'
p3872
tp3873
Rp3874
g1
(g5
S'*\x04d?'
p3875
tp3876
Rp3877
tp3878
a(g1
(g5
S'*\x04d?'
p3879
tp3880
Rp3881
g1
(g5
S'\xfb\x05d?'
p3882
tp3883
Rp3884
tp3885
a(g1
(g5
S'\xfb\x05d?'
p3886
tp3887
Rp3888
g1
(g5
S'\xcc\x07d?'
p3889
tp3890
Rp3891
tp3892
a(g1
(g5
S'\xcc\x07d?'
p3893
tp3894
Rp3895
g1
(g5
S'\xa0\td?'
p3896
tp3897
Rp3898
tp3899
a(g1
(g5
S'\xa0\td?'
p3900
tp3901
Rp3902
g1
(g5
S']\x0bd?'
p3903
tp3904
Rp3905
tp3906
a(g1
(g5
S']\x0bd?'
p3907
tp3908
Rp3909
g1
(g5
S'-\rd?'
p3910
tp3911
Rp3912
tp3913
a(g1
(g5
S'-\rd?'
p3914
tp3915
Rp3916
g1
(g5
S'\xf5\x0ed?'
p3917
tp3918
Rp3919
tp3920
a(g1
(g5
S'\xf5\x0ed?'
p3921
tp3922
Rp3923
g1
(g5
S'\xc4\x10d?'
p3924
tp3925
Rp3926
tp3927
a(g1
(g5
S'\xc4\x10d?'
p3928
tp3929
Rp3930
g1
(g5
S'\x8c\x12d?'
p3931
tp3932
Rp3933
tp3934
a(g1
(g5
S'\x8c\x12d?'
p3935
tp3936
Rp3937
g1
(g5
S'S\x14d?'
p3938
tp3939
Rp3940
tp3941
a(g1
(g5
S'S\x14d?'
p3942
tp3943
Rp3944
g1
(g5
S'\x11\x16d?'
p3945
tp3946
Rp3947
tp3948
a(g1
(g5
S'\x11\x16d?'
p3949
tp3950
Rp3951
g1
(g5
S'\xc9\x17d?'
p3952
tp3953
Rp3954
tp3955
a(g1
(g5
S'\xc9\x17d?'
p3956
tp3957
Rp3958
g1
(g5
S'\x89\x19d?'
p3959
tp3960
Rp3961
tp3962
a(g1
(g5
S'\x89\x19d?'
p3963
tp3964
Rp3965
g1
(g5
S'T\x1bd?'
p3966
tp3967
Rp3968
tp3969
a(g1
(g5
S'T\x1bd?'
p3970
tp3971
Rp3972
g1
(g5
S'\x11\x1dd?'
p3973
tp3974
Rp3975
tp3976
a(g1
(g5
S'\x11\x1dd?'
p3977
tp3978
Rp3979
g1
(g5
S'\xca\x1ed?'
p3980
tp3981
Rp3982
tp3983
a(g1
(g5
S'\xca\x1ed?'
p3984
tp3985
Rp3986
g1
(g5
S'\x87 d?'
p3987
tp3988
Rp3989
tp3990
a(g1
(g5
S'\x87 d?'
p3991
tp3992
Rp3993
g1
(g5
S'F"d?'
p3994
tp3995
Rp3996
tp3997
a(g1
(g5
S'F"d?'
p3998
tp3999
Rp4000
g1
(g5
S'\xfd#d?'
p4001
tp4002
Rp4003
tp4004
a(g1
(g5
S'\xfd#d?'
p4005
tp4006
Rp4007
g1
(g5
S'\xbe%d?'
p4008
tp4009
Rp4010
tp4011
a(g1
(g5
S'\xbe%d?'
p4012
tp4013
Rp4014
g1
(g5
S"d'd?"
p4015
tp4016
Rp4017
tp4018
a(g1
(g5
S"d'd?"
p4019
tp4020
Rp4021
g1
(g5
S'\x14)d?'
p4022
tp4023
Rp4024
tp4025
a(g1
(g5
S'\x14)d?'
p4026
tp4027
Rp4028
g1
(g5
S'\xbc*d?'
p4029
tp4030
Rp4031
tp4032
a(g1
(g5
S'\xbc*d?'
p4033
tp4034
Rp4035
g1
(g5
S'r,d?'
p4036
tp4037
Rp4038
tp4039
a(g1
(g5
S'r,d?'
p4040
tp4041
Rp4042
g1
(g5
S'&.d?'
p4043
tp4044
Rp4045
tp4046
a(g1
(g5
S'&.d?'
p4047
tp4048
Rp4049
g1
(g5
S'\xc5/d?'
p4050
tp4051
Rp4052
tp4053
a(g1
(g5
S'\xc5/d?'
p4054
tp4055
Rp4056
g1
(g5
S't1d?'
p4057
tp4058
Rp4059
tp4060
a(g1
(g5
S't1d?'
p4061
tp4062
Rp4063
g1
(g5
S'\x123d?'
p4064
tp4065
Rp4066
tp4067
a(g1
(g5
S'\x123d?'
p4068
tp4069
Rp4070
g1
(g5
S'\xc74d?'
p4071
tp4072
Rp4073
tp4074
a(g1
(g5
S'\xc74d?'
p4075
tp4076
Rp4077
g1
(g5
S'y6d?'
p4078
tp4079
Rp4080
tp4081
a(g1
(g5
S'y6d?'
p4082
tp4083
Rp4084
g1
(g5
S'\x198d?'
p4085
tp4086
Rp4087
tp4088
a(g1
(g5
S'\x198d?'
p4089
tp4090
Rp4091
g1
(g5
S'\xb79d?'
p4092
tp4093
Rp4094
tp4095
a(g1
(g5
S'\xb79d?'
p4096
tp4097
Rp4098
g1
(g5
S'e;d?'
p4099
tp4100
Rp4101
tp4102
a(g1
(g5
S'e;d?'
p4103
tp4104
Rp4105
g1
(g5
S'\n=d?'
p4106
tp4107
Rp4108
tp4109
a(g1
(g5
S'\n=d?'
p4110
tp4111
Rp4112
g1
(g5
S'\xb2>d?'
p4113
tp4114
Rp4115
tp4116
a(g1
(g5
S'\xb2>d?'
p4117
tp4118
Rp4119
g1
(g5
S'Z@d?'
p4120
tp4121
Rp4122
tp4123
a(g1
(g5
S'Z@d?'
p4124
tp4125
Rp4126
g1
(g5
S'\x05Bd?'
p4127
tp4128
Rp4129
tp4130
a(g1
(g5
S'\x05Bd?'
p4131
tp4132
Rp4133
g1
(g5
S'\x9fCd?'
p4134
tp4135
Rp4136
tp4137
a(g1
(g5
S'\x9fCd?'
p4138
tp4139
Rp4140
g1
(g5
S'BEd?'
p4141
tp4142
Rp4143
tp4144
a(g1
(g5
S'BEd?'
p4145
tp4146
Rp4147
g1
(g5
S'\xdfFd?'
p4148
tp4149
Rp4150
tp4151
a(g1
(g5
S'\xdfFd?'
p4152
tp4153
Rp4154
g1
(g5
S'}Hd?'
p4155
tp4156
Rp4157
tp4158
a(g1
(g5
S'}Hd?'
p4159
tp4160
Rp4161
g1
(g5
S'\x10Jd?'
p4162
tp4163
Rp4164
tp4165
a(g1
(g5
S'\x10Jd?'
p4166
tp4167
Rp4168
g1
(g5
S'\x9dKd?'
p4169
tp4170
Rp4171
tp4172
a(g1
(g5
S'\x9dKd?'
p4173
tp4174
Rp4175
g1
(g5
S'7Md?'
p4176
tp4177
Rp4178
tp4179
a(g1
(g5
S'7Md?'
p4180
tp4181
Rp4182
g1
(g5
S'\xd3Nd?'
p4183
tp4184
Rp4185
tp4186
a(g1
(g5
S'\xd3Nd?'
p4187
tp4188
Rp4189
g1
(g5
S'hPd?'
p4190
tp4191
Rp4192
tp4193
a(g1
(g5
S'hPd?'
p4194
tp4195
Rp4196
g1
(g5
S'\x02Rd?'
p4197
tp4198
Rp4199
tp4200
a(g1
(g5
S'\x02Rd?'
p4201
tp4202
Rp4203
g1
(g5
S'\x90Sd?'
p4204
tp4205
Rp4206
tp4207
a(g1
(g5
S'\x90Sd?'
p4208
tp4209
Rp4210
g1
(g5
S'\x1dUd?'
p4211
tp4212
Rp4213
tp4214
a(g1
(g5
S'\x1dUd?'
p4215
tp4216
Rp4217
g1
(g5
S'\xb2Vd?'
p4218
tp4219
Rp4220
tp4221
a(g1
(g5
S'\xb2Vd?'
p4222
tp4223
Rp4224
g1
(g5
S'?Xd?'
p4225
tp4226
Rp4227
tp4228
a(g1
(g5
S'?Xd?'
p4229
tp4230
Rp4231
g1
(g5
S'\xceYd?'
p4232
tp4233
Rp4234
tp4235
a(g1
(g5
S'\xceYd?'
p4236
tp4237
Rp4238
g1
(g5
S'b[d?'
p4239
tp4240
Rp4241
tp4242
a(g1
(g5
S'b[d?'
p4243
tp4244
Rp4245
g1
(g5
S'\xf6\\d?'
p4246
tp4247
Rp4248
tp4249
a(g1
(g5
S'\xf6\\d?'
p4250
tp4251
Rp4252
g1
(g5
S'\x86^d?'
p4253
tp4254
Rp4255
tp4256
a(g1
(g5
S'\x86^d?'
p4257
tp4258
Rp4259
g1
(g5
S'\xf9_d?'
p4260
tp4261
Rp4262
tp4263
a(g1
(g5
S'\xf9_d?'
p4264
tp4265
Rp4266
g1
(g5
S'\x82ad?'
p4267
tp4268
Rp4269
tp4270
a(g1
(g5
S'\x82ad?'
p4271
tp4272
Rp4273
g1
(g5
S'\xfcbd?'
p4274
tp4275
Rp4276
tp4277
a(g1
(g5
S'\xfcbd?'
p4278
tp4279
Rp4280
g1
(g5
S'\x90dd?'
p4281
tp4282
Rp4283
tp4284
a(g1
(g5
S'\x90dd?'
p4285
tp4286
Rp4287
g1
(g5
S'\tfd?'
p4288
tp4289
Rp4290
tp4291
a(g1
(g5
S'\tfd?'
p4292
tp4293
Rp4294
g1
(g5
S'\x86gd?'
p4295
tp4296
Rp4297
tp4298
a(g1
(g5
S'\x86gd?'
p4299
tp4300
Rp4301
g1
(g5
S'\xf8hd?'
p4302
tp4303
Rp4304
tp4305
a(g1
(g5
S'\xf8hd?'
p4306
tp4307
Rp4308
g1
(g5
S'}jd?'
p4309
tp4310
Rp4311
tp4312
a(g1
(g5
S'}jd?'
p4313
tp4314
Rp4315
g1
(g5
S'\xf1kd?'
p4316
tp4317
Rp4318
tp4319
a(g1
(g5
S'\xf1kd?'
p4320
tp4321
Rp4322
g1
(g5
S'kmd?'
p4323
tp4324
Rp4325
tp4326
a(g1
(g5
S'kmd?'
p4327
tp4328
Rp4329
g1
(g5
S'\xc9nd?'
p4330
tp4331
Rp4332
tp4333
a(g1
(g5
S'\xc9nd?'
p4334
tp4335
Rp4336
g1
(g5
S'Mpd?'
p4337
tp4338
Rp4339
tp4340
a(g1
(g5
S'Mpd?'
p4341
tp4342
Rp4343
g1
(g5
S'\xc0qd?'
p4344
tp4345
Rp4346
tp4347
a(g1
(g5
S'\xc0qd?'
p4348
tp4349
Rp4350
g1
(g5
S'=sd?'
p4351
tp4352
Rp4353
tp4354
a(g1
(g5
S'=sd?'
p4355
tp4356
Rp4357
g1
(g5
S'\xa9td?'
p4358
tp4359
Rp4360
tp4361
a(g1
(g5
S'\xa9td?'
p4362
tp4363
Rp4364
g1
(g5
S'"vd?'
p4365
tp4366
Rp4367
tp4368
a(g1
(g5
S'"vd?'
p4369
tp4370
Rp4371
g1
(g5
S'\x9cwd?'
p4372
tp4373
Rp4374
tp4375
a(g1
(g5
S'\x9cwd?'
p4376
tp4377
Rp4378
g1
(g5
S'\x0cyd?'
p4379
tp4380
Rp4381
tp4382
a(g1
(g5
S'\x0cyd?'
p4383
tp4384
Rp4385
g1
(g5
S'~zd?'
p4386
tp4387
Rp4388
tp4389
a(g1
(g5
S'~zd?'
p4390
tp4391
Rp4392
g1
(g5
S'\xf1{d?'
p4393
tp4394
Rp4395
tp4396
a(g1
(g5
S'\xf1{d?'
p4397
tp4398
Rp4399
g1
(g5
S'l}d?'
p4400
tp4401
Rp4402
tp4403
a(g1
(g5
S'l}d?'
p4404
tp4405
Rp4406
g1
(g5
S'\xe0~d?'
p4407
tp4408
Rp4409
tp4410
a(g1
(g5
S'\xe0~d?'
p4411
tp4412
Rp4413
g1
(g5
S'^\x80d?'
p4414
tp4415
Rp4416
tp4417
a(g1
(g5
S'^\x80d?'
p4418
tp4419
Rp4420
g1
(g5
S'\xc9\x81d?'
p4421
tp4422
Rp4423
tp4424
a(g1
(g5
S'\xc9\x81d?'
p4425
tp4426
Rp4427
g1
(g5
S'1\x83d?'
p4428
tp4429
Rp4430
tp4431
a(g1
(g5
S'1\x83d?'
p4432
tp4433
Rp4434
g1
(g5
S'\x9b\x84d?'
p4435
tp4436
Rp4437
tp4438
a(g1
(g5
S'\x9b\x84d?'
p4439
tp4440
Rp4441
g1
(g5
S'\n\x86d?'
p4442
tp4443
Rp4444
tp4445
a(g1
(g5
S'\n\x86d?'
p4446
tp4447
Rp4448
g1
(g5
S'\x80\x87d?'
p4449
tp4450
Rp4451
tp4452
a(g1
(g5
S'\x80\x87d?'
p4453
tp4454
Rp4455
g1
(g5
S'\xec\x88d?'
p4456
tp4457
Rp4458
tp4459
a(g1
(g5
S'\xec\x88d?'
p4460
tp4461
Rp4462
g1
(g5
S'0\x8ad?'
p4463
tp4464
Rp4465
tp4466
a(g1
(g5
S'0\x8ad?'
p4467
tp4468
Rp4469
g1
(g5
S'\x96\x8bd?'
p4470
tp4471
Rp4472
tp4473
a(g1
(g5
S'\x96\x8bd?'
p4474
tp4475
Rp4476
g1
(g5
S'\xfe\x8cd?'
p4477
tp4478
Rp4479
tp4480
a(g1
(g5
S'\xfe\x8cd?'
p4481
tp4482
Rp4483
g1
(g5
S'f\x8ed?'
p4484
tp4485
Rp4486
tp4487
a(g1
(g5
S'f\x8ed?'
p4488
tp4489
Rp4490
g1
(g5
S'\xd1\x8fd?'
p4491
tp4492
Rp4493
tp4494
a(g1
(g5
S'\xd1\x8fd?'
p4495
tp4496
Rp4497
g1
(g5
S'6\x91d?'
p4498
tp4499
Rp4500
tp4501
a(g1
(g5
S'6\x91d?'
p4502
tp4503
Rp4504
g1
(g5
S'\x97\x92d?'
p4505
tp4506
Rp4507
tp4508
a(g1
(g5
S'\x97\x92d?'
p4509
tp4510
Rp4511
g1
(g5
S'\xe4\x93d?'
p4512
tp4513
Rp4514
tp4515
a(g1
(g5
S'\xe4\x93d?'
p4516
tp4517
Rp4518
g1
(g5
S'K\x95d?'
p4519
tp4520
Rp4521
tp4522
a(g1
(g5
S'K\x95d?'
p4523
tp4524
Rp4525
g1
(g5
S'\xab\x96d?'
p4526
tp4527
Rp4528
tp4529
a(g1
(g5
S'\xab\x96d?'
p4530
tp4531
Rp4532
g1
(g5
S'\x0c\x98d?'
p4533
tp4534
Rp4535
tp4536
a(g1
(g5
S'\x0c\x98d?'
p4537
tp4538
Rp4539
g1
(g5
S'b\x99d?'
p4540
tp4541
Rp4542
tp4543
a(g1
(g5
S'b\x99d?'
p4544
tp4545
Rp4546
g1
(g5
S'\xc2\x9ad?'
p4547
tp4548
Rp4549
tp4550
a(g1
(g5
S'\xc2\x9ad?'
p4551
tp4552
Rp4553
g1
(g5
S'"\x9cd?'
p4554
tp4555
Rp4556
tp4557
a(g1
(g5
S'"\x9cd?'
p4558
tp4559
Rp4560
g1
(g5
S'x\x9dd?'
p4561
tp4562
Rp4563
tp4564
a(g1
(g5
S'x\x9dd?'
p4565
tp4566
Rp4567
g1
(g5
S'\xc3\x9ed?'
p4568
tp4569
Rp4570
tp4571
a(g1
(g5
S'\xc3\x9ed?'
p4572
tp4573
Rp4574
g1
(g5
S'\x17\xa0d?'
p4575
tp4576
Rp4577
tp4578
a(g1
(g5
S'\x17\xa0d?'
p4579
tp4580
Rp4581
g1
(g5
S'r\xa1d?'
p4582
tp4583
Rp4584
tp4585
a(g1
(g5
S'r\xa1d?'
p4586
tp4587
Rp4588
g1
(g5
S'\xca\xa2d?'
p4589
tp4590
Rp4591
tp4592
a(g1
(g5
S'\xca\xa2d?'
p4593
tp4594
Rp4595
g1
(g5
S'\x13\xa4d?'
p4596
tp4597
Rp4598
tp4599
a(g1
(g5
S'\x13\xa4d?'
p4600
tp4601
Rp4602
g1
(g5
S'\\\xa5d?'
p4603
tp4604
Rp4605
tp4606
a(g1
(g5
S'\\\xa5d?'
p4607
tp4608
Rp4609
g1
(g5
S'\xb6\xa6d?'
p4610
tp4611
Rp4612
tp4613
a(g1
(g5
S'\xb6\xa6d?'
p4614
tp4615
Rp4616
g1
(g5
S'\x05\xa8d?'
p4617
tp4618
Rp4619
tp4620
a(g1
(g5
S'\x05\xa8d?'
p4621
tp4622
Rp4623
g1
(g5
S'M\xa9d?'
p4624
tp4625
Rp4626
tp4627
a(g1
(g5
S'M\xa9d?'
p4628
tp4629
Rp4630
g1
(g5
S'\xa6\xaad?'
p4631
tp4632
Rp4633
tp4634
a(g1
(g5
S'\xa6\xaad?'
p4635
tp4636
Rp4637
g1
(g5
S'\xf4\xabd?'
p4638
tp4639
Rp4640
tp4641
a(g1
(g5
S'\xf4\xabd?'
p4642
tp4643
Rp4644
g1
(g5
S'@\xadd?'
p4645
tp4646
Rp4647
tp4648
a(g1
(g5
S'@\xadd?'
p4649
tp4650
Rp4651
g1
(g5
S'\x92\xaed?'
p4652
tp4653
Rp4654
tp4655
a(g1
(g5
S'\x92\xaed?'
p4656
tp4657
Rp4658
g1
(g5
S'\xd3\xafd?'
p4659
tp4660
Rp4661
tp4662
a(g1
(g5
S'\xd3\xafd?'
p4663
tp4664
Rp4665
g1
(g5
S'$\xb1d?'
p4666
tp4667
Rp4668
tp4669
a(g1
(g5
S'$\xb1d?'
p4670
tp4671
Rp4672
g1
(g5
S'o\xb2d?'
p4673
tp4674
Rp4675
tp4676
a(g1
(g5
S'o\xb2d?'
p4677
tp4678
Rp4679
g1
(g5
S'\xb5\xb3d?'
p4680
tp4681
Rp4682
tp4683
a(g1
(g5
S'\xb5\xb3d?'
p4684
tp4685
Rp4686
g1
(g5
S'\xff\xb4d?'
p4687
tp4688
Rp4689
tp4690
a(g1
(g5
S'\xff\xb4d?'
p4691
tp4692
Rp4693
g1
(g5
S'-\xb6d?'
p4694
tp4695
Rp4696
tp4697
a(g1
(g5
S'-\xb6d?'
p4698
tp4699
Rp4700
g1
(g5
S'y\xb7d?'
p4701
tp4702
Rp4703
tp4704
a(g1
(g5
S'y\xb7d?'
p4705
tp4706
Rp4707
g1
(g5
S'\xc5\xb8d?'
p4708
tp4709
Rp4710
tp4711
a(g1
(g5
S'\xc5\xb8d?'
p4712
tp4713
Rp4714
g1
(g5
S'\x00\xbad?'
p4715
tp4716
Rp4717
tp4718
a(g1
(g5
S'\x00\xbad?'
p4719
tp4720
Rp4721
g1
(g5
S'B\xbbd?'
p4722
tp4723
Rp4724
tp4725
a(g1
(g5
S'B\xbbd?'
p4726
tp4727
Rp4728
g1
(g5
S'\x83\xbcd?'
p4729
tp4730
Rp4731
tp4732
a(g1
(g5
S'\x83\xbcd?'
p4733
tp4734
Rp4735
g1
(g5
S'\xd1\xbdd?'
p4736
tp4737
Rp4738
tp4739
a(g1
(g5
S'\xd1\xbdd?'
p4740
tp4741
Rp4742
g1
(g5
S'\x16\xbfd?'
p4743
tp4744
Rp4745
tp4746
a(g1
(g5
S'\x16\xbfd?'
p4747
tp4748
Rp4749
g1
(g5
S'W\xc0d?'
p4750
tp4751
Rp4752
tp4753
a(g1
(g5
S'W\xc0d?'
p4754
tp4755
Rp4756
g1
(g5
S'\x89\xc1d?'
p4757
tp4758
Rp4759
tp4760
a(g1
(g5
S'\x89\xc1d?'
p4761
tp4762
Rp4763
g1
(g5
S'\xd3\xc2d?'
p4764
tp4765
Rp4766
tp4767
a(g1
(g5
S'\xd3\xc2d?'
p4768
tp4769
Rp4770
g1
(g5
S'\x0e\xc4d?'
p4771
tp4772
Rp4773
tp4774
a(g1
(g5
S'\x0e\xc4d?'
p4775
tp4776
Rp4777
g1
(g5
S'G\xc5d?'
p4778
tp4779
Rp4780
tp4781
a(g1
(g5
S'G\xc5d?'
p4782
tp4783
Rp4784
g1
(g5
S'\x81\xc6d?'
p4785
tp4786
Rp4787
tp4788
a(g1
(g5
S'\x81\xc6d?'
p4789
tp4790
Rp4791
g1
(g5
S'\xbe\xc7d?'
p4792
tp4793
Rp4794
tp4795
a(g1
(g5
S'\xbe\xc7d?'
p4796
tp4797
Rp4798
g1
(g5
S'\xfd\xc8d?'
p4799
tp4800
Rp4801
tp4802
a(g1
(g5
S'\xfd\xc8d?'
p4803
tp4804
Rp4805
g1
(g5
S'2\xcad?'
p4806
tp4807
Rp4808
tp4809
a(g1
(g5
S'2\xcad?'
p4810
tp4811
Rp4812
g1
(g5
S'q\xcbd?'
p4813
tp4814
Rp4815
tp4816
a(g1
(g5
S'q\xcbd?'
p4817
tp4818
Rp4819
g1
(g5
S'\x9e\xccd?'
p4820
tp4821
Rp4822
tp4823
a(g1
(g5
S'\x9e\xccd?'
p4824
tp4825
Rp4826
g1
(g5
S'\xcf\xcdd?'
p4827
tp4828
Rp4829
tp4830
a(g1
(g5
S'\xcf\xcdd?'
p4831
tp4832
Rp4833
g1
(g5
S'\xfe\xced?'
p4834
tp4835
Rp4836
tp4837
a(g1
(g5
S'\xfe\xced?'
p4838
tp4839
Rp4840
g1
(g5
S'8\xd0d?'
p4841
tp4842
Rp4843
tp4844
a(g1
(g5
S'8\xd0d?'
p4845
tp4846
Rp4847
g1
(g5
S'l\xd1d?'
p4848
tp4849
Rp4850
tp4851
a(g1
(g5
S'l\xd1d?'
p4852
tp4853
Rp4854
g1
(g5
S'\xa4\xd2d?'
p4855
tp4856
Rp4857
tp4858
a(g1
(g5
S'\xa4\xd2d?'
p4859
tp4860
Rp4861
g1
(g5
S'\xdc\xd3d?'
p4862
tp4863
Rp4864
tp4865
a(g1
(g5
S'\xdc\xd3d?'
p4866
tp4867
Rp4868
g1
(g5
S'\x14\xd5d?'
p4869
tp4870
Rp4871
tp4872
a(g1
(g5
S'\x14\xd5d?'
p4873
tp4874
Rp4875
g1
(g5
S'=\xd6d?'
p4876
tp4877
Rp4878
tp4879
a(g1
(g5
S'=\xd6d?'
p4880
tp4881
Rp4882
g1
(g5
S'i\xd7d?'
p4883
tp4884
Rp4885
tp4886
a(g1
(g5
S'i\xd7d?'
p4887
tp4888
Rp4889
g1
(g5
S'\xa2\xd8d?'
p4890
tp4891
Rp4892
tp4893
a(g1
(g5
S'\xa2\xd8d?'
p4894
tp4895
Rp4896
g1
(g5
S'\xcc\xd9d?'
p4897
tp4898
Rp4899
tp4900
a(g1
(g5
S'\xcc\xd9d?'
p4901
tp4902
Rp4903
g1
(g5
S'\x00\xdbd?'
p4904
tp4905
Rp4906
tp4907
a(g1
(g5
S'\x00\xdbd?'
p4908
tp4909
Rp4910
g1
(g5
S'\x1e\xdcd?'
p4911
tp4912
Rp4913
tp4914
a(g1
(g5
S'\x1e\xdcd?'
p4915
tp4916
Rp4917
g1
(g5
S'X\xddd?'
p4918
tp4919
Rp4920
tp4921
a(g1
(g5
S'X\xddd?'
p4922
tp4923
Rp4924
g1
(g5
S'v\xded?'
p4925
tp4926
Rp4927
tp4928
a(g1
(g5
S'v\xded?'
p4929
tp4930
Rp4931
g1
(g5
S'\xa6\xdfd?'
p4932
tp4933
Rp4934
tp4935
a(g1
(g5
S'\xa6\xdfd?'
p4936
tp4937
Rp4938
g1
(g5
S'\xc9\xe0d?'
p4939
tp4940
Rp4941
tp4942
a(g1
(g5
S'\xc9\xe0d?'
p4943
tp4944
Rp4945
g1
(g5
S'\xf5\xe1d?'
p4946
tp4947
Rp4948
tp4949
a(g1
(g5
S'\xf5\xe1d?'
p4950
tp4951
Rp4952
g1
(g5
S'\x1c\xe3d?'
p4953
tp4954
Rp4955
tp4956
a(g1
(g5
S'\x1c\xe3d?'
p4957
tp4958
Rp4959
g1
(g5
S'H\xe4d?'
p4960
tp4961
Rp4962
tp4963
a(g1
(g5
S'H\xe4d?'
p4964
tp4965
Rp4966
g1
(g5
S'm\xe5d?'
p4967
tp4968
Rp4969
tp4970
a(g1
(g5
S'm\xe5d?'
p4971
tp4972
Rp4973
g1
(g5
S'\x90\xe6d?'
p4974
tp4975
Rp4976
tp4977
a(g1
(g5
S'\x90\xe6d?'
p4978
tp4979
Rp4980
g1
(g5
S'\xa6\xe7d?'
p4981
tp4982
Rp4983
tp4984
a(g1
(g5
S'\xa6\xe7d?'
p4985
tp4986
Rp4987
g1
(g5
S'\xcf\xe8d?'
p4988
tp4989
Rp4990
tp4991
a(g1
(g5
S'\xcf\xe8d?'
p4992
tp4993
Rp4994
g1
(g5
S'\xf4\xe9d?'
p4995
tp4996
Rp4997
tp4998
a(g1
(g5
S'\xf4\xe9d?'
p4999
tp5000
Rp5001
g1
(g5
S'\x1b\xebd?'
p5002
tp5003
Rp5004
tp5005
a(g1
(g5
S'\x1b\xebd?'
p5006
tp5007
Rp5008
g1
(g5
S'0\xecd?'
p5009
tp5010
Rp5011
tp5012
a(g1
(g5
S'0\xecd?'
p5013
tp5014
Rp5015
g1
(g5
S'V\xedd?'
p5016
tp5017
Rp5018
tp5019
a(g1
(g5
S'V\xedd?'
p5020
tp5021
Rp5022
g1
(g5
S'~\xeed?'
p5023
tp5024
Rp5025
tp5026
a(g1
(g5
S'~\xeed?'
p5027
tp5028
Rp5029
g1
(g5
S'\xa6\xefd?'
p5030
tp5031
Rp5032
tp5033
a(g1
(g5
S'\xa6\xefd?'
p5034
tp5035
Rp5036
g1
(g5
S'\xc9\xf0d?'
p5037
tp5038
Rp5039
tp5040
a(g1
(g5
S'\xc9\xf0d?'
p5041
tp5042
Rp5043
g1
(g5
S'\xeb\xf1d?'
p5044
tp5045
Rp5046
tp5047
a(g1
(g5
S'\xeb\xf1d?'
p5048
tp5049
Rp5050
g1
(g5
S'\x03\xf3d?'
p5051
tp5052
Rp5053
tp5054
a(g1
(g5
S'\x03\xf3d?'
p5055
tp5056
Rp5057
g1
(g5
S'$\xf4d?'
p5058
tp5059
Rp5060
tp5061
a(g1
(g5
S'$\xf4d?'
p5062
tp5063
Rp5064
g1
(g5
S'A\xf5d?'
p5065
tp5066
Rp5067
tp5068
a(g1
(g5
S'A\xf5d?'
p5069
tp5070
Rp5071
g1
(g5
S'Y\xf6d?'
p5072
tp5073
Rp5074
tp5075
a(g1
(g5
S'Y\xf6d?'
p5076
tp5077
Rp5078
g1
(g5
S'|\xf7d?'
p5079
tp5080
Rp5081
tp5082
a(g1
(g5
S'|\xf7d?'
p5083
tp5084
Rp5085
g1
(g5
S'\x98\xf8d?'
p5086
tp5087
Rp5088
tp5089
a(g1
(g5
S'\x98\xf8d?'
p5090
tp5091
Rp5092
g1
(g5
S'\xaf\xf9d?'
p5093
tp5094
Rp5095
tp5096
a(g1
(g5
S'\xaf\xf9d?'
p5097
tp5098
Rp5099
g1
(g5
S'\xbe\xfad?'
p5100
tp5101
Rp5102
tp5103
a(g1
(g5
S'\xbe\xfad?'
p5104
tp5105
Rp5106
g1
(g5
S'\xd4\xfbd?'
p5107
tp5108
Rp5109
tp5110
a(g1
(g5
S'\xd4\xfbd?'
p5111
tp5112
Rp5113
g1
(g5
S'\xf3\xfcd?'
p5114
tp5115
Rp5116
tp5117
a(g1
(g5
S'\xf3\xfcd?'
p5118
tp5119
Rp5120
g1
(g5
S'\xf8\xfdd?'
p5121
tp5122
Rp5123
tp5124
a(g1
(g5
S'\xf8\xfdd?'
p5125
tp5126
Rp5127
g1
(g5
S'\x12\xffd?'
p5128
tp5129
Rp5130
tp5131
a(g1
(g5
S'\x12\xffd?'
p5132
tp5133
Rp5134
g1
(g5
S'%\x00e?'
p5135
tp5136
Rp5137
tp5138
a(g1
(g5
S'%\x00e?'
p5139
tp5140
Rp5141
g1
(g5
S'.\x01e?'
p5142
tp5143
Rp5144
tp5145
a(g1
(g5
S'.\x01e?'
p5146
tp5147
Rp5148
g1
(g5
S'>\x02e?'
p5149
tp5150
Rp5151
tp5152
a(g1
(g5
S'>\x02e?'
p5153
tp5154
Rp5155
g1
(g5
S'M\x03e?'
p5156
tp5157
Rp5158
tp5159
a(g1
(g5
S'M\x03e?'
p5160
tp5161
Rp5162
g1
(g5
S'h\x04e?'
p5163
tp5164
Rp5165
tp5166
a(g1
(g5
S'h\x04e?'
p5167
tp5168
Rp5169
g1
(g5
S'w\x05e?'
p5170
tp5171
Rp5172
tp5173
a(g1
(g5
S'w\x05e?'
p5174
tp5175
Rp5176
g1
(g5
S'}\x06e?'
p5177
tp5178
Rp5179
tp5180
a(g1
(g5
S'}\x06e?'
p5181
tp5182
Rp5183
g1
(g5
S'\x82\x07e?'
p5184
tp5185
Rp5186
tp5187
a(g1
(g5
S'\x82\x07e?'
p5188
tp5189
Rp5190
g1
(g5
S'\xa1\x08e?'
p5191
tp5192
Rp5193
tp5194
a(g1
(g5
S'\xa1\x08e?'
p5195
tp5196
Rp5197
g1
(g5
S'\xb3\te?'
p5198
tp5199
Rp5200
tp5201
a(g1
(g5
S'\xb3\te?'
p5202
tp5203
Rp5204
g1
(g5
S'\xc5\ne?'
p5205
tp5206
Rp5207
tp5208
a(g1
(g5
S'\xc5\ne?'
p5209
tp5210
Rp5211
g1
(g5
S'\xd2\x0be?'
p5212
tp5213
Rp5214
tp5215
a(g1
(g5
S'\xd2\x0be?'
p5216
tp5217
Rp5218
g1
(g5
S'\xe3\x0ce?'
p5219
tp5220
Rp5221
tp5222
a(g1
(g5
S'\xe3\x0ce?'
p5223
tp5224
Rp5225
g1
(g5
S'\xf4\re?'
p5226
tp5227
Rp5228
tp5229
a(g1
(g5
S'\xf4\re?'
p5230
tp5231
Rp5232
g1
(g5
S'\x06\x0fe?'
p5233
tp5234
Rp5235
tp5236
a(g1
(g5
S'\x06\x0fe?'
p5237
tp5238
Rp5239
g1
(g5
S'\n\x10e?'
p5240
tp5241
Rp5242
tp5243
a(g1
(g5
S'\n\x10e?'
p5244
tp5245
Rp5246
g1
(g5
S'\x0e\x11e?'
p5247
tp5248
Rp5249
tp5250
a(g1
(g5
S'\x0e\x11e?'
p5251
tp5252
Rp5253
g1
(g5
S'\x15\x12e?'
p5254
tp5255
Rp5256
tp5257
a(g1
(g5
S'\x15\x12e?'
p5258
tp5259
Rp5260
g1
(g5
S'!\x13e?'
p5261
tp5262
Rp5263
tp5264
a(g1
(g5
S'!\x13e?'
p5265
tp5266
Rp5267
g1
(g5
S'\x1e\x14e?'
p5268
tp5269
Rp5270
tp5271
a(g1
(g5
S'\x1e\x14e?'
p5272
tp5273
Rp5274
g1
(g5
S'1\x15e?'
p5275
tp5276
Rp5277
tp5278
a(g1
(g5
S'1\x15e?'
p5279
tp5280
Rp5281
g1
(g5
S'*\x16e?'
p5282
tp5283
Rp5284
tp5285
a(g1
(g5
S'*\x16e?'
p5286
tp5287
Rp5288
g1
(g5
S' \x17e?'
p5289
tp5290
Rp5291
tp5292
a(g1
(g5
S' \x17e?'
p5293
tp5294
Rp5295
g1
(g5
S'\x1e\x18e?'
p5296
tp5297
Rp5298
tp5299
a(g1
(g5
S'\x1e\x18e?'
p5300
tp5301
Rp5302
g1
(g5
S'\xfd\x18e?'
p5303
tp5304
Rp5305
tp5306
a(g1
(g5
S'\xfd\x18e?'
p5307
tp5308
Rp5309
g1
(g5
S'\x01\x1ae?'
p5310
tp5311
Rp5312
tp5313
a(g1
(g5
S'\x01\x1ae?'
p5314
tp5315
Rp5316
g1
(g5
S'\xf6\x1ae?'
p5317
tp5318
Rp5319
tp5320
a(g1
(g5
S'\xf6\x1ae?'
p5321
tp5322
Rp5323
g1
(g5
S'\xf4\x1be?'
p5324
tp5325
Rp5326
tp5327
a(g1
(g5
S'\xf4\x1be?'
p5328
tp5329
Rp5330
g1
(g5
S'\xef\x1ce?'
p5331
tp5332
Rp5333
tp5334
a(g1
(g5
S'\xef\x1ce?'
p5335
tp5336
Rp5337
g1
(g5
S'\xf1\x1de?'
p5338
tp5339
Rp5340
tp5341
a(g1
(g5
S'\xf1\x1de?'
p5342
tp5343
Rp5344
g1
(g5
S'\xf8\x1ee?'
p5345
tp5346
Rp5347
tp5348
a(g1
(g5
S'\xf8\x1ee?'
p5349
tp5350
Rp5351
g1
(g5
S'\xfc\x1fe?'
p5352
tp5353
Rp5354
tp5355
a(g1
(g5
S'\xfc\x1fe?'
p5356
tp5357
Rp5358
g1
(g5
S'\x01!e?'
p5359
tp5360
Rp5361
tp5362
a(g1
(g5
S'\x01!e?'
p5363
tp5364
Rp5365
g1
(g5
S'\n"e?'
p5366
tp5367
Rp5368
tp5369
a(g1
(g5
S'\n"e?'
p5370
tp5371
Rp5372
g1
(g5
S'\n#e?'
p5373
tp5374
Rp5375
tp5376
a(g1
(g5
S'\n#e?'
p5377
tp5378
Rp5379
g1
(g5
S'\x0c$e?'
p5380
tp5381
Rp5382
tp5383
a(g1
(g5
S'\x0c$e?'
p5384
tp5385
Rp5386
g1
(g5
S'\x13%e?'
p5387
tp5388
Rp5389
tp5390
a(g1
(g5
S'\x13%e?'
p5391
tp5392
Rp5393
g1
(g5
S'\x14&e?'
p5394
tp5395
Rp5396
tp5397
a(g1
(g5
S'\x14&e?'
p5398
tp5399
Rp5400
g1
(g5
S"\x13'e?"
p5401
tp5402
Rp5403
tp5404
a(g1
(g5
S"\x13'e?"
p5405
tp5406
Rp5407
g1
(g5
S'\x11(e?'
p5408
tp5409
Rp5410
tp5411
a(g1
(g5
S'\x11(e?'
p5412
tp5413
Rp5414
g1
(g5
S'\r)e?'
p5415
tp5416
Rp5417
tp5418
a(g1
(g5
S'\r)e?'
p5419
tp5420
Rp5421
g1
(g5
S'\x06*e?'
p5422
tp5423
Rp5424
tp5425
a(g1
(g5
S'\x06*e?'
p5426
tp5427
Rp5428
g1
(g5
S'\xfc*e?'
p5429
tp5430
Rp5431
tp5432
a(g1
(g5
S'\xfc*e?'
p5433
tp5434
Rp5435
g1
(g5
S'\xe0+e?'
p5436
tp5437
Rp5438
tp5439
a(g1
(g5
S'\xe0+e?'
p5440
tp5441
Rp5442
g1
(g5
S'\xd8,e?'
p5443
tp5444
Rp5445
tp5446
a(g1
(g5
S'\xd8,e?'
p5447
tp5448
Rp5449
g1
(g5
S'\xcd-e?'
p5450
tp5451
Rp5452
tp5453
a(g1
(g5
S'\xcd-e?'
p5454
tp5455
Rp5456
g1
(g5
S'\xc5.e?'
p5457
tp5458
Rp5459
tp5460
a(g1
(g5
S'\xc5.e?'
p5461
tp5462
Rp5463
g1
(g5
S'\xa7/e?'
p5464
tp5465
Rp5466
tp5467
a(g1
(g5
S'\xa7/e?'
p5468
tp5469
Rp5470
g1
(g5
S'\x9c0e?'
p5471
tp5472
Rp5473
tp5474
a(g1
(g5
S'\x9c0e?'
p5475
tp5476
Rp5477
g1
(g5
S'\x8c1e?'
p5478
tp5479
Rp5480
tp5481
a(g1
(g5
S'\x8c1e?'
p5482
tp5483
Rp5484
g1
(g5
S'~2e?'
p5485
tp5486
Rp5487
tp5488
a(g1
(g5
S'~2e?'
p5489
tp5490
Rp5491
g1
(g5
S's3e?'
p5492
tp5493
Rp5494
tp5495
a(g1
(g5
S's3e?'
p5496
tp5497
Rp5498
g1
(g5
S'a4e?'
p5499
tp5500
Rp5501
tp5502
a(g1
(g5
S'a4e?'
p5503
tp5504
Rp5505
g1
(g5
S'R5e?'
p5506
tp5507
Rp5508
tp5509
a(g1
(g5
S'R5e?'
p5510
tp5511
Rp5512
g1
(g5
S'L6e?'
p5513
tp5514
Rp5515
tp5516
a(g1
(g5
S'L6e?'
p5517
tp5518
Rp5519
g1
(g5
S':7e?'
p5520
tp5521
Rp5522
tp5523
a(g1
(g5
S':7e?'
p5524
tp5525
Rp5526
g1
(g5
S'/8e?'
p5527
tp5528
Rp5529
tp5530
a(g1
(g5
S'/8e?'
p5531
tp5532
Rp5533
g1
(g5
S'$9e?'
p5534
tp5535
Rp5536
tp5537
a(g1
(g5
S'$9e?'
p5538
tp5539
Rp5540
g1
(g5
S'\x1e:e?'
p5541
tp5542
Rp5543
tp5544
a(g1
(g5
S'\x1e:e?'
p5545
tp5546
Rp5547
g1
(g5
S'\xff:e?'
p5548
tp5549
Rp5550
tp5551
a(g1
(g5
S'\xff:e?'
p5552
tp5553
Rp5554
g1
(g5
S'\xe1;e?'
p5555
tp5556
Rp5557
tp5558
a(g1
(g5
S'\xe1;e?'
p5559
tp5560
Rp5561
g1
(g5
S'\xcc<e?'
p5562
tp5563
Rp5564
tp5565
a(g1
(g5
S'\xcc<e?'
p5566
tp5567
Rp5568
g1
(g5
S'\xbd=e?'
p5569
tp5570
Rp5571
tp5572
a(g1
(g5
S'\xbd=e?'
p5573
tp5574
Rp5575
g1
(g5
S'\xb0>e?'
p5576
tp5577
Rp5578
tp5579
a(g1
(g5
S'\xb0>e?'
p5580
tp5581
Rp5582
g1
(g5
S'\x9b?e?'
p5583
tp5584
Rp5585
tp5586
a(g1
(g5
S'\x9b?e?'
p5587
tp5588
Rp5589
g1
(g5
S'\x81@e?'
p5590
tp5591
Rp5592
tp5593
a(g1
(g5
S'\x81@e?'
p5594
tp5595
Rp5596
g1
(g5
S'uAe?'
p5597
tp5598
Rp5599
tp5600
a(g1
(g5
S'uAe?'
p5601
tp5602
Rp5603
g1
(g5
S'`Be?'
p5604
tp5605
Rp5606
tp5607
a(g1
(g5
S'`Be?'
p5608
tp5609
Rp5610
g1
(g5
S'OCe?'
p5611
tp5612
Rp5613
tp5614
a(g1
(g5
S'OCe?'
p5615
tp5616
Rp5617
g1
(g5
S'2De?'
p5618
tp5619
Rp5620
tp5621
a(g1
(g5
S'2De?'
p5622
tp5623
Rp5624
g1
(g5
S'\x17Ee?'
p5625
tp5626
Rp5627
tp5628
a(g1
(g5
S'\x17Ee?'
p5629
tp5630
Rp5631
g1
(g5
S'\x00Fe?'
p5632
tp5633
Rp5634
tp5635
a(g1
(g5
S'\x00Fe?'
p5636
tp5637
Rp5638
g1
(g5
S'\xf0Fe?'
p5639
tp5640
Rp5641
tp5642
a(g1
(g5
S'\xf0Fe?'
p5643
tp5644
Rp5645
g1
(g5
S'\xd3Ge?'
p5646
tp5647
Rp5648
tp5649
a(g1
(g5
S'\xd3Ge?'
p5650
tp5651
Rp5652
g1
(g5
S'\xbdHe?'
p5653
tp5654
Rp5655
tp5656
a(g1
(g5
S'\xbdHe?'
p5657
tp5658
Rp5659
g1
(g5
S'\xa5Ie?'
p5660
tp5661
Rp5662
tp5663
a(g1
(g5
S'\xa5Ie?'
p5664
tp5665
Rp5666
g1
(g5
S'\x91Je?'
p5667
tp5668
Rp5669
tp5670
a(g1
(g5
S'\x91Je?'
p5671
tp5672
Rp5673
g1
(g5
S'oKe?'
p5674
tp5675
Rp5676
tp5677
a(g1
(g5
S'oKe?'
p5678
tp5679
Rp5680
g1
(g5
S'HLe?'
p5681
tp5682
Rp5683
tp5684
a(g1
(g5
S'HLe?'
p5685
tp5686
Rp5687
g1
(g5
S'4Me?'
p5688
tp5689
Rp5690
tp5691
a(g1
(g5
S'4Me?'
p5692
tp5693
Rp5694
g1
(g5
S'\x18Ne?'
p5695
tp5696
Rp5697
tp5698
a(g1
(g5
S'\x18Ne?'
p5699
tp5700
Rp5701
g1
(g5
S'\x01Oe?'
p5702
tp5703
Rp5704
tp5705
a(g1
(g5
S'\x01Oe?'
p5706
tp5707
Rp5708
g1
(g5
S'\xd7Oe?'
p5709
tp5710
Rp5711
tp5712
a(g1
(g5
S'\xd7Oe?'
p5713
tp5714
Rp5715
g1
(g5
S'\xbcPe?'
p5716
tp5717
Rp5718
tp5719
a(g1
(g5
S'\xbcPe?'
p5720
tp5721
Rp5722
g1
(g5
S'\xa7Qe?'
p5723
tp5724
Rp5725
tp5726
a(g1
(g5
S'\xa7Qe?'
p5727
tp5728
Rp5729
g1
(g5
S'\x85Re?'
p5730
tp5731
Rp5732
tp5733
a(g1
(g5
S'\x85Re?'
p5734
tp5735
Rp5736
g1
(g5
S'kSe?'
p5737
tp5738
Rp5739
tp5740
a(g1
(g5
S'kSe?'
p5741
tp5742
Rp5743
g1
(g5
S'DTe?'
p5744
tp5745
Rp5746
tp5747
a(g1
(g5
S'DTe?'
p5748
tp5749
Rp5750
g1
(g5
S'&Ue?'
p5751
tp5752
Rp5753
tp5754
a(g1
(g5
S'&Ue?'
p5755
tp5756
Rp5757
g1
(g5
S'\x04Ve?'
p5758
tp5759
Rp5760
tp5761
a(g1
(g5
S'\x04Ve?'
p5762
tp5763
Rp5764
g1
(g5
S'\xe6Ve?'
p5765
tp5766
Rp5767
tp5768
a(g1
(g5
S'\xe6Ve?'
p5769
tp5770
Rp5771
g1
(g5
S'\xcdWe?'
p5772
tp5773
Rp5774
tp5775
a(g1
(g5
S'\xcdWe?'
p5776
tp5777
Rp5778
g1
(g5
S'\xb2Xe?'
p5779
tp5780
Rp5781
tp5782
a(g1
(g5
S'\xb2Xe?'
p5783
tp5784
Rp5785
g1
(g5
S'\x91Ye?'
p5786
tp5787
Rp5788
tp5789
a(g1
(g5
S'\x91Ye?'
p5790
tp5791
Rp5792
g1
(g5
S'nZe?'
p5793
tp5794
Rp5795
tp5796
a(g1
(g5
S'nZe?'
p5797
tp5798
Rp5799
g1
(g5
S'.[e?'
p5800
tp5801
Rp5802
tp5803
a(g1
(g5
S'.[e?'
p5804
tp5805
Rp5806
g1
(g5
S'\x10\\e?'
p5807
tp5808
Rp5809
tp5810
a(g1
(g5
S'\x10\\e?'
p5811
tp5812
Rp5813
g1
(g5
S'\xe5\\e?'
p5814
tp5815
Rp5816
tp5817
a(g1
(g5
S'\xe5\\e?'
p5818
tp5819
Rp5820
g1
(g5
S'\xbf]e?'
p5821
tp5822
Rp5823
tp5824
a(g1
(g5
S'\xbf]e?'
p5825
tp5826
Rp5827
g1
(g5
S'\x97^e?'
p5828
tp5829
Rp5830
tp5831
a(g1
(g5
S'\x97^e?'
p5832
tp5833
Rp5834
g1
(g5
S'm_e?'
p5835
tp5836
Rp5837
tp5838
a(g1
(g5
S'm_e?'
p5839
tp5840
Rp5841
g1
(g5
S'D`e?'
p5842
tp5843
Rp5844
tp5845
a(g1
(g5
S'D`e?'
p5846
tp5847
Rp5848
g1
(g5
S'\x1cae?'
p5849
tp5850
Rp5851
tp5852
a(g1
(g5
S'\x1cae?'
p5853
tp5854
Rp5855
g1
(g5
S'\xfaae?'
p5856
tp5857
Rp5858
tp5859
a(g1
(g5
S'\xfaae?'
p5860
tp5861
Rp5862
g1
(g5
S'\xd6be?'
p5863
tp5864
Rp5865
tp5866
a(g1
(g5
S'\xd6be?'
p5867
tp5868
Rp5869
g1
(g5
S'\xa6ce?'
p5870
tp5871
Rp5872
tp5873
a(g1
(g5
S'\xa6ce?'
p5874
tp5875
Rp5876
g1
(g5
S'vde?'
p5877
tp5878
Rp5879
tp5880
a(g1
(g5
S'vde?'
p5881
tp5882
Rp5883
g1
(g5
S'Oee?'
p5884
tp5885
Rp5886
tp5887
a(g1
(g5
S'Oee?'
p5888
tp5889
Rp5890
g1
(g5
S'\x19fe?'
p5891
tp5892
Rp5893
tp5894
a(g1
(g5
S'\x19fe?'
p5895
tp5896
Rp5897
g1
(g5
S'\xecfe?'
p5898
tp5899
Rp5900
tp5901
a(g1
(g5
S'\xecfe?'
p5902
tp5903
Rp5904
g1
(g5
S'\xc4ge?'
p5905
tp5906
Rp5907
tp5908
a(g1
(g5
S'\xc4ge?'
p5909
tp5910
Rp5911
g1
(g5
S'\x9dhe?'
p5912
tp5913
Rp5914
tp5915
a(g1
(g5
S'\x9dhe?'
p5916
tp5917
Rp5918
g1
(g5
S'nie?'
p5919
tp5920
Rp5921
tp5922
a(g1
(g5
S'nie?'
p5923
tp5924
Rp5925
g1
(g5
S'/je?'
p5926
tp5927
Rp5928
tp5929
a(g1
(g5
S'/je?'
p5930
tp5931
Rp5932
g1
(g5
S'\tke?'
p5933
tp5934
Rp5935
tp5936
a(g1
(g5
S'\tke?'
p5937
tp5938
Rp5939
g1
(g5
S'\xd3ke?'
p5940
tp5941
Rp5942
tp5943
a(g1
(g5
S'\xd3ke?'
p5944
tp5945
Rp5946
g1
(g5
S'\x99le?'
p5947
tp5948
Rp5949
tp5950
a(g1
(g5
S'\x99le?'
p5951
tp5952
Rp5953
g1
(g5
S'ome?'
p5954
tp5955
Rp5956
tp5957
a(g1
(g5
S'ome?'
p5958
tp5959
Rp5960
g1
(g5
S'Ene?'
p5961
tp5962
Rp5963
tp5964
a(g1
(g5
S'Ene?'
p5965
tp5966
Rp5967
g1
(g5
S'\x11oe?'
p5968
tp5969
Rp5970
tp5971
a(g1
(g5
S'\x11oe?'
p5972
tp5973
Rp5974
g1
(g5
S'\xe4oe?'
p5975
tp5976
Rp5977
tp5978
a(g1
(g5
S'\xe4oe?'
p5979
tp5980
Rp5981
g1
(g5
S'\xb5pe?'
p5982
tp5983
Rp5984
tp5985
a(g1
(g5
S'\xb5pe?'
p5986
tp5987
Rp5988
g1
(g5
S'\x80qe?'
p5989
tp5990
Rp5991
tp5992
a(g1
(g5
S'\x80qe?'
p5993
tp5994
Rp5995
g1
(g5
S'Hre?'
p5996
tp5997
Rp5998
tp5999
a(g1
(g5
S'Hre?'
p6000
tp6001
Rp6002
g1
(g5
S'\x19se?'
p6003
tp6004
Rp6005
tp6006
a(g1
(g5
S'\x19se?'
p6007
tp6008
Rp6009
g1
(g5
S'\xd8se?'
p6010
tp6011
Rp6012
tp6013
a(g1
(g5
S'\xd8se?'
p6014
tp6015
Rp6016
g1
(g5
S'\xa6te?'
p6017
tp6018
Rp6019
tp6020
a(g1
(g5
S'\xa6te?'
p6021
tp6022
Rp6023
g1
(g5
S'yue?'
p6024
tp6025
Rp6026
tp6027
a(g1
(g5
S'yue?'
p6028
tp6029
Rp6030
g1
(g5
S'Gve?'
p6031
tp6032
Rp6033
tp6034
a(g1
(g5
S'Gve?'
p6035
tp6036
Rp6037
g1
(g5
S'\x06we?'
p6038
tp6039
Rp6040
tp6041
a(g1
(g5
S'\x06we?'
p6042
tp6043
Rp6044
g1
(g5
S'\xd0we?'
p6045
tp6046
Rp6047
tp6048
a(g1
(g5
S'\xd0we?'
p6049
tp6050
Rp6051
g1
(g5
S'\x9dxe?'
p6052
tp6053
Rp6054
tp6055
a(g1
(g5
S'\x9dxe?'
p6056
tp6057
Rp6058
g1
(g5
S'hye?'
p6059
tp6060
Rp6061
tp6062
a(g1
(g5
S'hye?'
p6063
tp6064
Rp6065
g1
(g5
S'2ze?'
p6066
tp6067
Rp6068
tp6069
a(g1
(g5
S'2ze?'
p6070
tp6071
Rp6072
g1
(g5
S'\x03{e?'
p6073
tp6074
Rp6075
tp6076
a(g1
(g5
S'\x03{e?'
p6077
tp6078
Rp6079
g1
(g5
S'\xd6{e?'
p6080
tp6081
Rp6082
tp6083
a(g1
(g5
S'\xd6{e?'
p6084
tp6085
Rp6086
g1
(g5
S'\x9e|e?'
p6087
tp6088
Rp6089
tp6090
a(g1
(g5
S'\x9e|e?'
p6091
tp6092
Rp6093
g1
(g5
S'k}e?'
p6094
tp6095
Rp6096
tp6097
a(g1
(g5
S'k}e?'
p6098
tp6099
Rp6100
g1
(g5
S'*~e?'
p6101
tp6102
Rp6103
tp6104
a(g1
(g5
S'*~e?'
p6105
tp6106
Rp6107
g1
(g5
S'\xef~e?'
p6108
tp6109
Rp6110
tp6111
a(g1
(g5
S'\xef~e?'
p6112
tp6113
Rp6114
g1
(g5
S'\xb5\x7fe?'
p6115
tp6116
Rp6117
tp6118
a(g1
(g5
S'\xb5\x7fe?'
p6119
tp6120
Rp6121
g1
(g5
S'\x80\x80e?'
p6122
tp6123
Rp6124
tp6125
a(g1
(g5
S'\x80\x80e?'
p6126
tp6127
Rp6128
g1
(g5
S'M\x81e?'
p6129
tp6130
Rp6131
tp6132
a(g1
(g5
S'M\x81e?'
p6133
tp6134
Rp6135
g1
(g5
S'\x19\x82e?'
p6136
tp6137
Rp6138
tp6139
a(g1
(g5
S'\x19\x82e?'
p6140
tp6141
Rp6142
g1
(g5
S'\xdb\x82e?'
p6143
tp6144
Rp6145
tp6146
a(g1
(g5
S'\xdb\x82e?'
p6147
tp6148
Rp6149
g1
(g5
S'\xa6\x83e?'
p6150
tp6151
Rp6152
tp6153
a(g1
(g5
S'\xa6\x83e?'
p6154
tp6155
Rp6156
g1
(g5
S'p\x84e?'
p6157
tp6158
Rp6159
tp6160
a(g1
(g5
S'p\x84e?'
p6161
tp6162
Rp6163
g1
(g5
S'\x1e\x85e?'
p6164
tp6165
Rp6166
tp6167
a(g1
(g5
S'\x1e\x85e?'
p6168
tp6169
Rp6170
g1
(g5
S'\xdd\x85e?'
p6171
tp6172
Rp6173
tp6174
a(g1
(g5
S'\xdd\x85e?'
p6175
tp6176
Rp6177
g1
(g5
S'\xa0\x86e?'
p6178
tp6179
Rp6180
tp6181
a(g1
(g5
S'\xa0\x86e?'
p6182
tp6183
Rp6184
g1
(g5
S'c\x87e?'
p6185
tp6186
Rp6187
tp6188
a(g1
(g5
S'c\x87e?'
p6189
tp6190
Rp6191
g1
(g5
S'(\x88e?'
p6192
tp6193
Rp6194
tp6195
a(g1
(g5
S'(\x88e?'
p6196
tp6197
Rp6198
g1
(g5
S'\xe3\x88e?'
p6199
tp6200
Rp6201
tp6202
a(g1
(g5
S'\xe3\x88e?'
p6203
tp6204
Rp6205
g1
(g5
S'\xa6\x89e?'
p6206
tp6207
Rp6208
tp6209
a(g1
(g5
S'\xa6\x89e?'
p6210
tp6211
Rp6212
g1
(g5
S'm\x8ae?'
p6213
tp6214
Rp6215
tp6216
a(g1
(g5
S'm\x8ae?'
p6217
tp6218
Rp6219
g1
(g5
S'&\x8be?'
p6220
tp6221
Rp6222
tp6223
a(g1
(g5
S'&\x8be?'
p6224
tp6225
Rp6226
g1
(g5
S'\xe4\x8be?'
p6227
tp6228
Rp6229
tp6230
a(g1
(g5
S'\xe4\x8be?'
p6231
tp6232
Rp6233
g1
(g5
S'\xa6\x8ce?'
p6234
tp6235
Rp6236
tp6237
a(g1
(g5
S'\xa6\x8ce?'
p6238
tp6239
Rp6240
g1
(g5
S'n\x8de?'
p6241
tp6242
Rp6243
tp6244
a(g1
(g5
S'n\x8de?'
p6245
tp6246
Rp6247
g1
(g5
S'+\x8ee?'
p6248
tp6249
Rp6250
tp6251
a(g1
(g5
S'+\x8ee?'
p6252
tp6253
Rp6254
g1
(g5
S'\xed\x8ee?'
p6255
tp6256
Rp6257
tp6258
a(g1
(g5
S'\xed\x8ee?'
p6259
tp6260
Rp6261
g1
(g5
S'\xac\x8fe?'
p6262
tp6263
Rp6264
tp6265
a(g1
(g5
S'\xac\x8fe?'
p6266
tp6267
Rp6268
g1
(g5
S'j\x90e?'
p6269
tp6270
Rp6271
tp6272
a(g1
(g5
S'j\x90e?'
p6273
tp6274
Rp6275
g1
(g5
S'\x1d\x91e?'
p6276
tp6277
Rp6278
tp6279
a(g1
(g5
S'\x1d\x91e?'
p6280
tp6281
Rp6282
g1
(g5
S'\xd8\x91e?'
p6283
tp6284
Rp6285
tp6286
a(g1
(g5
S'\xd8\x91e?'
p6287
tp6288
Rp6289
g1
(g5
S'\x97\x92e?'
p6290
tp6291
Rp6292
tp6293
a(g1
(g5
S'\x97\x92e?'
p6294
tp6295
Rp6296
g1
(g5
S'I\x93e?'
p6297
tp6298
Rp6299
tp6300
a(g1
(g5
S'I\x93e?'
p6301
tp6302
Rp6303
g1
(g5
S'\t\x94e?'
p6304
tp6305
Rp6306
tp6307
a(g1
(g5
S'\t\x94e?'
p6308
tp6309
Rp6310
g1
(g5
S'\xc6\x94e?'
p6311
tp6312
Rp6313
tp6314
a(g1
(g5
S'\xc6\x94e?'
p6315
tp6316
Rp6317
g1
(g5
S'\x82\x95e?'
p6318
tp6319
Rp6320
tp6321
a(g1
(g5
S'\x82\x95e?'
p6322
tp6323
Rp6324
g1
(g5
S';\x96e?'
p6325
tp6326
Rp6327
tp6328
a(g1
(g5
S';\x96e?'
p6329
tp6330
Rp6331
g1
(g5
S'\xf8\x96e?'
p6332
tp6333
Rp6334
tp6335
a(g1
(g5
S'\xf8\x96e?'
p6336
tp6337
Rp6338
g1
(g5
S'\xb3\x97e?'
p6339
tp6340
Rp6341
tp6342
a(g1
(g5
S'\xb3\x97e?'
p6343
tp6344
Rp6345
g1
(g5
S'm\x98e?'
p6346
tp6347
Rp6348
tp6349
a(g1
(g5
S'm\x98e?'
p6350
tp6351
Rp6352
g1
(g5
S'(\x99e?'
p6353
tp6354
Rp6355
tp6356
a(g1
(g5
S'(\x99e?'
p6357
tp6358
Rp6359
g1
(g5
S'\xe6\x99e?'
p6360
tp6361
Rp6362
tp6363
a(g1
(g5
S'\xe6\x99e?'
p6364
tp6365
Rp6366
g1
(g5
S'\x9e\x9ae?'
p6367
tp6368
Rp6369
tp6370
a(g1
(g5
S'\x9e\x9ae?'
p6371
tp6372
Rp6373
g1
(g5
S'V\x9be?'
p6374
tp6375
Rp6376
tp6377
a(g1
(g5
S'V\x9be?'
p6378
tp6379
Rp6380
g1
(g5
S'\x07\x9ce?'
p6381
tp6382
Rp6383
tp6384
a(g1
(g5
S'\x07\x9ce?'
p6385
tp6386
Rp6387
g1
(g5
S'\xb7\x9ce?'
p6388
tp6389
Rp6390
tp6391
a(g1
(g5
S'\xb7\x9ce?'
p6392
tp6393
Rp6394
g1
(g5
S'l\x9de?'
p6395
tp6396
Rp6397
tp6398
a(g1
(g5
S'l\x9de?'
p6399
tp6400
Rp6401
g1
(g5
S'$\x9ee?'
p6402
tp6403
Rp6404
tp6405
a(g1
(g5
S'$\x9ee?'
p6406
tp6407
Rp6408
g1
(g5
S'\xca\x9ee?'
p6409
tp6410
Rp6411
tp6412
a(g1
(g5
S'\xca\x9ee?'
p6413
tp6414
Rp6415
g1
(g5
S'w\x9fe?'
p6416
tp6417
Rp6418
tp6419
a(g1
(g5
S'w\x9fe?'
p6420
tp6421
Rp6422
g1
(g5
S'/\xa0e?'
p6423
tp6424
Rp6425
tp6426
a(g1
(g5
S'/\xa0e?'
p6427
tp6428
Rp6429
g1
(g5
S'\xea\xa0e?'
p6430
tp6431
Rp6432
tp6433
a(g1
(g5
S'\xea\xa0e?'
p6434
tp6435
Rp6436
g1
(g5
S'\x94\xa1e?'
p6437
tp6438
Rp6439
tp6440
a(g1
(g5
S'\x94\xa1e?'
p6441
tp6442
Rp6443
g1
(g5
S'D\xa2e?'
p6444
tp6445
Rp6446
tp6447
a(g1
(g5
S'D\xa2e?'
p6448
tp6449
Rp6450
g1
(g5
S'\xf4\xa2e?'
p6451
tp6452
Rp6453
tp6454
a(g1
(g5
S'\xf4\xa2e?'
p6455
tp6456
Rp6457
g1
(g5
S'\xb1\xa3e?'
p6458
tp6459
Rp6460
tp6461
a(g1
(g5
S'\xb1\xa3e?'
p6462
tp6463
Rp6464
g1
(g5
S'[\xa4e?'
p6465
tp6466
Rp6467
tp6468
a(g1
(g5
S'[\xa4e?'
p6469
tp6470
Rp6471
g1
(g5
S'\x08\xa5e?'
p6472
tp6473
Rp6474
tp6475
a(g1
(g5
S'\x08\xa5e?'
p6476
tp6477
Rp6478
g1
(g5
S'\xaf\xa5e?'
p6479
tp6480
Rp6481
tp6482
a(g1
(g5
S'\xaf\xa5e?'
p6483
tp6484
Rp6485
g1
(g5
S'h\xa6e?'
p6486
tp6487
Rp6488
tp6489
a(g1
(g5
S'h\xa6e?'
p6490
tp6491
Rp6492
g1
(g5
S'\x19\xa7e?'
p6493
tp6494
Rp6495
tp6496
a(g1
(g5
S'\x19\xa7e?'
p6497
tp6498
Rp6499
g1
(g5
S'\xd3\xa7e?'
p6500
tp6501
Rp6502
tp6503
a(g1
(g5
S'\xd3\xa7e?'
p6504
tp6505
Rp6506
g1
(g5
S'\x8a\xa8e?'
p6507
tp6508
Rp6509
tp6510
a(g1
(g5
S'\x8a\xa8e?'
p6511
tp6512
Rp6513
g1
(g5
S'3\xa9e?'
p6514
tp6515
Rp6516
tp6517
a(g1
(g5
S'3\xa9e?'
p6518
tp6519
Rp6520
g1
(g5
S'\xda\xa9e?'
p6521
tp6522
Rp6523
tp6524
a(g1
(g5
S'\xda\xa9e?'
p6525
tp6526
Rp6527
g1
(g5
S'\x84\xaae?'
p6528
tp6529
Rp6530
tp6531
a(g1
(g5
S'\x84\xaae?'
p6532
tp6533
Rp6534
g1
(g5
S'4\xabe?'
p6535
tp6536
Rp6537
tp6538
a(g1
(g5
S'4\xabe?'
p6539
tp6540
Rp6541
g1
(g5
S'\xe0\xabe?'
p6542
tp6543
Rp6544
tp6545
a(g1
(g5
S'\xe0\xabe?'
p6546
tp6547
Rp6548
g1
(g5
S'\x7f\xace?'
p6549
tp6550
Rp6551
tp6552
a(g1
(g5
S'\x7f\xace?'
p6553
tp6554
Rp6555
g1
(g5
S'2\xade?'
p6556
tp6557
Rp6558
tp6559
a(g1
(g5
S'2\xade?'
p6560
tp6561
Rp6562
g1
(g5
S'\xcc\xade?'
p6563
tp6564
Rp6565
tp6566
a(g1
(g5
S'\xcc\xade?'
p6567
tp6568
Rp6569
g1
(g5
S'}\xaee?'
p6570
tp6571
Rp6572
tp6573
a(g1
(g5
S'}\xaee?'
p6574
tp6575
Rp6576
g1
(g5
S'5\xafe?'
p6577
tp6578
Rp6579
tp6580
a(g1
(g5
S'5\xafe?'
p6581
tp6582
Rp6583
g1
(g5
S'\xd7\xafe?'
p6584
tp6585
Rp6586
tp6587
a(g1
(g5
S'\xd7\xafe?'
p6588
tp6589
Rp6590
g1
(g5
S'\x8d\xb0e?'
p6591
tp6592
Rp6593
tp6594
a(g1
(g5
S'\x8d\xb0e?'
p6595
tp6596
Rp6597
g1
(g5
S'9\xb1e?'
p6598
tp6599
Rp6600
tp6601
a(g1
(g5
S'9\xb1e?'
p6602
tp6603
Rp6604
g1
(g5
S'\xe9\xb1e?'
p6605
tp6606
Rp6607
tp6608
a(g1
(g5
S'\xe9\xb1e?'
p6609
tp6610
Rp6611
g1
(g5
S'\x98\xb2e?'
p6612
tp6613
Rp6614
tp6615
a(g1
(g5
S'\x98\xb2e?'
p6616
tp6617
Rp6618
g1
(g5
S'C\xb3e?'
p6619
tp6620
Rp6621
tp6622
a(g1
(g5
S'C\xb3e?'
p6623
tp6624
Rp6625
g1
(g5
S'\xf3\xb3e?'
p6626
tp6627
Rp6628
tp6629
a(g1
(g5
S'\xf3\xb3e?'
p6630
tp6631
Rp6632
g1
(g5
S'\xa3\xb4e?'
p6633
tp6634
Rp6635
tp6636
a(g1
(g5
S'\xa3\xb4e?'
p6637
tp6638
Rp6639
g1
(g5
S'N\xb5e?'
p6640
tp6641
Rp6642
tp6643
a(g1
(g5
S'N\xb5e?'
p6644
tp6645
Rp6646
g1
(g5
S'\xf8\xb5e?'
p6647
tp6648
Rp6649
tp6650
a(g1
(g5
S'\xf8\xb5e?'
p6651
tp6652
Rp6653
g1
(g5
S'\xa4\xb6e?'
p6654
tp6655
Rp6656
tp6657
a(g1
(g5
S'\xa4\xb6e?'
p6658
tp6659
Rp6660
g1
(g5
S'J\xb7e?'
p6661
tp6662
Rp6663
tp6664
a(g1
(g5
S'J\xb7e?'
p6665
tp6666
Rp6667
g1
(g5
S'\xf5\xb7e?'
p6668
tp6669
Rp6670
tp6671
a(g1
(g5
S'\xf5\xb7e?'
p6672
tp6673
Rp6674
g1
(g5
S'\x99\xb8e?'
p6675
tp6676
Rp6677
tp6678
a(g1
(g5
S'\x99\xb8e?'
p6679
tp6680
Rp6681
g1
(g5
S'C\xb9e?'
p6682
tp6683
Rp6684
tp6685
a(g1
(g5
S'C\xb9e?'
p6686
tp6687
Rp6688
g1
(g5
S'\xec\xb9e?'
p6689
tp6690
Rp6691
tp6692
a(g1
(g5
S'\xec\xb9e?'
p6693
tp6694
Rp6695
g1
(g5
S'\x94\xbae?'
p6696
tp6697
Rp6698
tp6699
a(g1
(g5
S'\x94\xbae?'
p6700
tp6701
Rp6702
g1
(g5
S'F\xbbe?'
p6703
tp6704
Rp6705
tp6706
a(g1
(g5
S'F\xbbe?'
p6707
tp6708
Rp6709
g1
(g5
S'\xf0\xbbe?'
p6710
tp6711
Rp6712
tp6713
a(g1
(g5
S'\xf0\xbbe?'
p6714
tp6715
Rp6716
g1
(g5
S'\x98\xbce?'
p6717
tp6718
Rp6719
tp6720
a(g1
(g5
S'\x98\xbce?'
p6721
tp6722
Rp6723
g1
(g5
S'<\xbde?'
p6724
tp6725
Rp6726
tp6727
a(g1
(g5
S'<\xbde?'
p6728
tp6729
Rp6730
g1
(g5
S'\xe0\xbde?'
p6731
tp6732
Rp6733
tp6734
a(g1
(g5
S'\xe0\xbde?'
p6735
tp6736
Rp6737
g1
(g5
S'\x85\xbee?'
p6738
tp6739
Rp6740
tp6741
a(g1
(g5
S'\x85\xbee?'
p6742
tp6743
Rp6744
g1
(g5
S'+\xbfe?'
p6745
tp6746
Rp6747
tp6748
a(g1
(g5
S'+\xbfe?'
p6749
tp6750
Rp6751
g1
(g5
S'\xd1\xbfe?'
p6752
tp6753
Rp6754
tp6755
a(g1
(g5
S'\xd1\xbfe?'
p6756
tp6757
Rp6758
g1
(g5
S'r\xc0e?'
p6759
tp6760
Rp6761
tp6762
a(g1
(g5
S'r\xc0e?'
p6763
tp6764
Rp6765
g1
(g5
S'\x1b\xc1e?'
p6766
tp6767
Rp6768
tp6769
a(g1
(g5
S'\x1b\xc1e?'
p6770
tp6771
Rp6772
g1
(g5
S'\xc0\xc1e?'
p6773
tp6774
Rp6775
tp6776
a(g1
(g5
S'\xc0\xc1e?'
p6777
tp6778
Rp6779
g1
(g5
S'c\xc2e?'
p6780
tp6781
Rp6782
tp6783
a(g1
(g5
S'c\xc2e?'
p6784
tp6785
Rp6786
g1
(g5
S'\x01\xc3e?'
p6787
tp6788
Rp6789
tp6790
a(g1
(g5
S'\x01\xc3e?'
p6791
tp6792
Rp6793
g1
(g5
S'\xa5\xc3e?'
p6794
tp6795
Rp6796
tp6797
a(g1
(g5
S'\xa5\xc3e?'
p6798
tp6799
Rp6800
g1
(g5
S'J\xc4e?'
p6801
tp6802
Rp6803
tp6804
a(g1
(g5
S'J\xc4e?'
p6805
tp6806
Rp6807
g1
(g5
S'\xf1\xc4e?'
p6808
tp6809
Rp6810
tp6811
a(g1
(g5
S'\xf1\xc4e?'
p6812
tp6813
Rp6814
g1
(g5
S'\x90\xc5e?'
p6815
tp6816
Rp6817
tp6818
a(g1
(g5
S'\x90\xc5e?'
p6819
tp6820
Rp6821
g1
(g5
S'7\xc6e?'
p6822
tp6823
Rp6824
tp6825
a(g1
(g5
S'7\xc6e?'
p6826
tp6827
Rp6828
g1
(g5
S'\xd2\xc6e?'
p6829
tp6830
Rp6831
tp6832
a(g1
(g5
S'\xd2\xc6e?'
p6833
tp6834
Rp6835
g1
(g5
S'r\xc7e?'
p6836
tp6837
Rp6838
tp6839
a(g1
(g5
S'r\xc7e?'
p6840
tp6841
Rp6842
g1
(g5
S'\x15\xc8e?'
p6843
tp6844
Rp6845
tp6846
a(g1
(g5
S'\x15\xc8e?'
p6847
tp6848
Rp6849
g1
(g5
S'\xbb\xc8e?'
p6850
tp6851
Rp6852
tp6853
a(g1
(g5
S'\xbb\xc8e?'
p6854
tp6855
Rp6856
g1
(g5
S'V\xc9e?'
p6857
tp6858
Rp6859
tp6860
a(g1
(g5
S'V\xc9e?'
p6861
tp6862
Rp6863
g1
(g5
S'\xfa\xc9e?'
p6864
tp6865
Rp6866
tp6867
a(g1
(g5
S'\xfa\xc9e?'
p6868
tp6869
Rp6870
g1
(g5
S'\xa2\xcae?'
p6871
tp6872
Rp6873
tp6874
a(g1
(g5
S'\xa2\xcae?'
p6875
tp6876
Rp6877
g1
(g5
S'B\xcbe?'
p6878
tp6879
Rp6880
tp6881
a(g1
(g5
S'B\xcbe?'
p6882
tp6883
Rp6884
g1
(g5
S'\xe7\xcbe?'
p6885
tp6886
Rp6887
tp6888
a(g1
(g5
S'\xe7\xcbe?'
p6889
tp6890
Rp6891
g1
(g5
S'\x7f\xcce?'
p6892
tp6893
Rp6894
tp6895
a(g1
(g5
S'\x7f\xcce?'
p6896
tp6897
Rp6898
g1
(g5
S'\x1f\xcde?'
p6899
tp6900
Rp6901
tp6902
a(g1
(g5
S'\x1f\xcde?'
p6903
tp6904
Rp6905
g1
(g5
S'\xbb\xcde?'
p6906
tp6907
Rp6908
tp6909
a(g1
(g5
S'\xbb\xcde?'
p6910
tp6911
Rp6912
g1
(g5
S'Y\xcee?'
p6913
tp6914
Rp6915
tp6916
a(g1
(g5
S'Y\xcee?'
p6917
tp6918
Rp6919
g1
(g5
S'\xfb\xcee?'
p6920
tp6921
Rp6922
tp6923
a(g1
(g5
S'\xfb\xcee?'
p6924
tp6925
Rp6926
g1
(g5
S'\x98\xcfe?'
p6927
tp6928
Rp6929
tp6930
a(g1
(g5
S'\x98\xcfe?'
p6931
tp6932
Rp6933
g1
(g5
S'7\xd0e?'
p6934
tp6935
Rp6936
tp6937
a(g1
(g5
S'7\xd0e?'
p6938
tp6939
Rp6940
g1
(g5
S'\xde\xd0e?'
p6941
tp6942
Rp6943
tp6944
a(g1
(g5
S'\xde\xd0e?'
p6945
tp6946
Rp6947
g1
(g5
S'{\xd1e?'
p6948
tp6949
Rp6950
tp6951
a(g1
(g5
S'{\xd1e?'
p6952
tp6953
Rp6954
g1
(g5
S'\x1e\xd2e?'
p6955
tp6956
Rp6957
tp6958
a(g1
(g5
S'\x1e\xd2e?'
p6959
tp6960
Rp6961
g1
(g5
S'\xba\xd2e?'
p6962
tp6963
Rp6964
tp6965
a(g1
(g5
S'\xba\xd2e?'
p6966
tp6967
Rp6968
g1
(g5
S'W\xd3e?'
p6969
tp6970
Rp6971
tp6972
a(g1
(g5
S'W\xd3e?'
p6973
tp6974
Rp6975
g1
(g5
S'\xed\xd3e?'
p6976
tp6977
Rp6978
tp6979
a(g1
(g5
S'\xed\xd3e?'
p6980
tp6981
Rp6982
g1
(g5
S'\x83\xd4e?'
p6983
tp6984
Rp6985
tp6986
a(g1
(g5
S'\x83\xd4e?'
p6987
tp6988
Rp6989
g1
(g5
S'\x19\xd5e?'
p6990
tp6991
Rp6992
tp6993
a(g1
(g5
S'\x19\xd5e?'
p6994
tp6995
Rp6996
g1
(g5
S'\xbb\xd5e?'
p6997
tp6998
Rp6999
tp7000
a(g1
(g5
S'\xbb\xd5e?'
p7001
tp7002
Rp7003
g1
(g5
S'[\xd6e?'
p7004
tp7005
Rp7006
tp7007
a(g1
(g5
S'[\xd6e?'
p7008
tp7009
Rp7010
g1
(g5
S'\xf9\xd6e?'
p7011
tp7012
Rp7013
tp7014
a(g1
(g5
S'\xf9\xd6e?'
p7015
tp7016
Rp7017
g1
(g5
S'\x95\xd7e?'
p7018
tp7019
Rp7020
tp7021
a(g1
(g5
S'\x95\xd7e?'
p7022
tp7023
Rp7024
g1
(g5
S'+\xd8e?'
p7025
tp7026
Rp7027
tp7028
a(g1
(g5
S'+\xd8e?'
p7029
tp7030
Rp7031
g1
(g5
S'\xcc\xd8e?'
p7032
tp7033
Rp7034
tp7035
a(g1
(g5
S'\xcc\xd8e?'
p7036
tp7037
Rp7038
g1
(g5
S']\xd9e?'
p7039
tp7040
Rp7041
tp7042
a(g1
(g5
S']\xd9e?'
p7043
tp7044
Rp7045
g1
(g5
S'\xf3\xd9e?'
p7046
tp7047
Rp7048
tp7049
a(g1
(g5
S'\xf3\xd9e?'
p7050
tp7051
Rp7052
g1
(g5
S'\x87\xdae?'
p7053
tp7054
Rp7055
tp7056
a(g1
(g5
S'\x87\xdae?'
p7057
tp7058
Rp7059
g1
(g5
S'(\xdbe?'
p7060
tp7061
Rp7062
tp7063
a(g1
(g5
S'(\xdbe?'
p7064
tp7065
Rp7066
g1
(g5
S'\xc5\xdbe?'
p7067
tp7068
Rp7069
tp7070
a(g1
(g5
S'\xc5\xdbe?'
p7071
tp7072
Rp7073
g1
(g5
S'e\xdce?'
p7074
tp7075
Rp7076
tp7077
a(g1
(g5
S'e\xdce?'
p7078
tp7079
Rp7080
g1
(g5
S'\x01\xdde?'
p7081
tp7082
Rp7083
tp7084
a(g1
(g5
S'\x01\xdde?'
p7085
tp7086
Rp7087
g1
(g5
S'\x91\xdde?'
p7088
tp7089
Rp7090
tp7091
a(g1
(g5
S'\x91\xdde?'
p7092
tp7093
Rp7094
g1
(g5
S'"\xdee?'
p7095
tp7096
Rp7097
tp7098
a(g1
(g5
S'"\xdee?'
p7099
tp7100
Rp7101
g1
(g5
S'\xad\xdee?'
p7102
tp7103
Rp7104
tp7105
a(g1
(g5
S'\xad\xdee?'
p7106
tp7107
Rp7108
g1
(g5
S'K\xdfe?'
p7109
tp7110
Rp7111
tp7112
a(g1
(g5
S'K\xdfe?'
p7113
tp7114
Rp7115
g1
(g5
S'\xdb\xdfe?'
p7116
tp7117
Rp7118
tp7119
a(g1
(g5
S'\xdb\xdfe?'
p7120
tp7121
Rp7122
g1
(g5
S'o\xe0e?'
p7123
tp7124
Rp7125
tp7126
a(g1
(g5
S'o\xe0e?'
p7127
tp7128
Rp7129
g1
(g5
S'\x08\xe1e?'
p7130
tp7131
Rp7132
tp7133
a(g1
(g5
S'\x08\xe1e?'
p7134
tp7135
Rp7136
g1
(g5
S'\x97\xe1e?'
p7137
tp7138
Rp7139
tp7140
a(g1
(g5
S'\x97\xe1e?'
p7141
tp7142
Rp7143
g1
(g5
S'/\xe2e?'
p7144
tp7145
Rp7146
tp7147
a(g1
(g5
S'/\xe2e?'
p7148
tp7149
Rp7150
g1
(g5
S'\xbb\xe2e?'
p7151
tp7152
Rp7153
tp7154
a(g1
(g5
S'\xbb\xe2e?'
p7155
tp7156
Rp7157
g1
(g5
S'H\xe3e?'
p7158
tp7159
Rp7160
tp7161
a(g1
(g5
S'H\xe3e?'
p7162
tp7163
Rp7164
g1
(g5
S'\xd6\xe3e?'
p7165
tp7166
Rp7167
tp7168
a(g1
(g5
S'\xd6\xe3e?'
p7169
tp7170
Rp7171
g1
(g5
S'q\xe4e?'
p7172
tp7173
Rp7174
tp7175
a(g1
(g5
S'q\xe4e?'
p7176
tp7177
Rp7178
g1
(g5
S'\x06\xe5e?'
p7179
tp7180
Rp7181
tp7182
a(g1
(g5
S'\x06\xe5e?'
p7183
tp7184
Rp7185
g1
(g5
S'\x8a\xe5e?'
p7186
tp7187
Rp7188
tp7189
a(g1
(g5
S'\x8a\xe5e?'
p7190
tp7191
Rp7192
g1
(g5
S'\x1c\xe6e?'
p7193
tp7194
Rp7195
tp7196
a(g1
(g5
S'\x1c\xe6e?'
p7197
tp7198
Rp7199
g1
(g5
S'\xb3\xe6e?'
p7200
tp7201
Rp7202
tp7203
a(g1
(g5
S'\xb3\xe6e?'
p7204
tp7205
Rp7206
g1
(g5
S'F\xe7e?'
p7207
tp7208
Rp7209
tp7210
a(g1
(g5
S'F\xe7e?'
p7211
tp7212
Rp7213
g1
(g5
S'\xd9\xe7e?'
p7214
tp7215
Rp7216
tp7217
a(g1
(g5
S'\xd9\xe7e?'
p7218
tp7219
Rp7220
g1
(g5
S'm\xe8e?'
p7221
tp7222
Rp7223
tp7224
a(g1
(g5
S'm\xe8e?'
p7225
tp7226
Rp7227
g1
(g5
S'\xf9\xe8e?'
p7228
tp7229
Rp7230
tp7231
a(g1
(g5
S'\xf9\xe8e?'
p7232
tp7233
Rp7234
g1
(g5
S'\x83\xe9e?'
p7235
tp7236
Rp7237
tp7238
a(g1
(g5
S'\x83\xe9e?'
p7239
tp7240
Rp7241
g1
(g5
S'\x16\xeae?'
p7242
tp7243
Rp7244
tp7245
a(g1
(g5
S'\x16\xeae?'
p7246
tp7247
Rp7248
g1
(g5
S'\xa5\xeae?'
p7249
tp7250
Rp7251
tp7252
a(g1
(g5
S'\xa5\xeae?'
p7253
tp7254
Rp7255
g1
(g5
S'/\xebe?'
p7256
tp7257
Rp7258
tp7259
a(g1
(g5
S'/\xebe?'
p7260
tp7261
Rp7262
g1
(g5
S'\xc0\xebe?'
p7263
tp7264
Rp7265
tp7266
a(g1
(g5
S'\xc0\xebe?'
p7267
tp7268
Rp7269
g1
(g5
S'S\xece?'
p7270
tp7271
Rp7272
tp7273
a(g1
(g5
S'S\xece?'
p7274
tp7275
Rp7276
g1
(g5
S'\xe4\xece?'
p7277
tp7278
Rp7279
tp7280
a(g1
(g5
S'\xe4\xece?'
p7281
tp7282
Rp7283
g1
(g5
S'v\xede?'
p7284
tp7285
Rp7286
tp7287
a(g1
(g5
S'v\xede?'
p7288
tp7289
Rp7290
g1
(g5
S'\x08\xeee?'
p7291
tp7292
Rp7293
tp7294
a(g1
(g5
S'\x08\xeee?'
p7295
tp7296
Rp7297
g1
(g5
S'\x96\xeee?'
p7298
tp7299
Rp7300
tp7301
a(g1
(g5
S'\x96\xeee?'
p7302
tp7303
Rp7304
g1
(g5
S'&\xefe?'
p7305
tp7306
Rp7307
tp7308
a(g1
(g5
S'&\xefe?'
p7309
tp7310
Rp7311
g1
(g5
S'\xb4\xefe?'
p7312
tp7313
Rp7314
tp7315
a(g1
(g5
S'\xb4\xefe?'
p7316
tp7317
Rp7318
g1
(g5
S'E\xf0e?'
p7319
tp7320
Rp7321
tp7322
a(g1
(g5
S'E\xf0e?'
p7323
tp7324
Rp7325
g1
(g5
S'\xd6\xf0e?'
p7326
tp7327
Rp7328
tp7329
a(g1
(g5
S'\xd6\xf0e?'
p7330
tp7331
Rp7332
g1
(g5
S'c\xf1e?'
p7333
tp7334
Rp7335
tp7336
a(g1
(g5
S'c\xf1e?'
p7337
tp7338
Rp7339
g1
(g5
S'\xe3\xf1e?'
p7340
tp7341
Rp7342
tp7343
a(g1
(g5
S'\xe3\xf1e?'
p7344
tp7345
Rp7346
g1
(g5
S'd\xf2e?'
p7347
tp7348
Rp7349
tp7350
a(g1
(g5
S'd\xf2e?'
p7351
tp7352
Rp7353
g1
(g5
S'\xec\xf2e?'
p7354
tp7355
Rp7356
tp7357
a(g1
(g5
S'\xec\xf2e?'
p7358
tp7359
Rp7360
g1
(g5
S'j\xf3e?'
p7361
tp7362
Rp7363
tp7364
a(g1
(g5
S'j\xf3e?'
p7365
tp7366
Rp7367
g1
(g5
S'\xfb\xf3e?'
p7368
tp7369
Rp7370
tp7371
a(g1
(g5
S'\xfb\xf3e?'
p7372
tp7373
Rp7374
g1
(g5
S'\x88\xf4e?'
p7375
tp7376
Rp7377
tp7378
a(g1
(g5
S'\x88\xf4e?'
p7379
tp7380
Rp7381
g1
(g5
S'\x13\xf5e?'
p7382
tp7383
Rp7384
tp7385
a(g1
(g5
S'\x13\xf5e?'
p7386
tp7387
Rp7388
g1
(g5
S'\xa8\xf5e?'
p7389
tp7390
Rp7391
tp7392
a(g1
(g5
S'\xa8\xf5e?'
p7393
tp7394
Rp7395
g1
(g5
S'3\xf6e?'
p7396
tp7397
Rp7398
tp7399
a(g1
(g5
S'3\xf6e?'
p7400
tp7401
Rp7402
g1
(g5
S'\xb7\xf6e?'
p7403
tp7404
Rp7405
tp7406
a(g1
(g5
S'\xb7\xf6e?'
p7407
tp7408
Rp7409
g1
(g5
S'G\xf7e?'
p7410
tp7411
Rp7412
tp7413
a(g1
(g5
S'G\xf7e?'
p7414
tp7415
Rp7416
g1
(g5
S'\xcc\xf7e?'
p7417
tp7418
Rp7419
tp7420
a(g1
(g5
S'\xcc\xf7e?'
p7421
tp7422
Rp7423
g1
(g5
S'Z\xf8e?'
p7424
tp7425
Rp7426
tp7427
a(g1
(g5
S'Z\xf8e?'
p7428
tp7429
Rp7430
g1
(g5
S'\xe7\xf8e?'
p7431
tp7432
Rp7433
tp7434
a(g1
(g5
S'\xe7\xf8e?'
p7435
tp7436
Rp7437
g1
(g5
S'i\xf9e?'
p7438
tp7439
Rp7440
tp7441
a(g1
(g5
S'i\xf9e?'
p7442
tp7443
Rp7444
g1
(g5
S'\xf2\xf9e?'
p7445
tp7446
Rp7447
tp7448
a(g1
(g5
S'\xf2\xf9e?'
p7449
tp7450
Rp7451
g1
(g5
S'{\xfae?'
p7452
tp7453
Rp7454
tp7455
a(g1
(g5
S'{\xfae?'
p7456
tp7457
Rp7458
g1
(g5
S'\x0b\xfbe?'
p7459
tp7460
Rp7461
tp7462
a(g1
(g5
S'\x0b\xfbe?'
p7463
tp7464
Rp7465
g1
(g5
S'\x94\xfbe?'
p7466
tp7467
Rp7468
tp7469
a(g1
(g5
S'\x94\xfbe?'
p7470
tp7471
Rp7472
g1
(g5
S'\x1d\xfce?'
p7473
tp7474
Rp7475
tp7476
a(g1
(g5
S'\x1d\xfce?'
p7477
tp7478
Rp7479
g1
(g5
S'\xa7\xfce?'
p7480
tp7481
Rp7482
tp7483
a(g1
(g5
S'\xa7\xfce?'
p7484
tp7485
Rp7486
g1
(g5
S'5\xfde?'
p7487
tp7488
Rp7489
tp7490
a(g1
(g5
S'5\xfde?'
p7491
tp7492
Rp7493
g1
(g5
S'\xc1\xfde?'
p7494
tp7495
Rp7496
tp7497
a(g1
(g5
S'\xc1\xfde?'
p7498
tp7499
Rp7500
g1
(g5
S'E\xfee?'
p7501
tp7502
Rp7503
tp7504
a(g1
(g5
S'E\xfee?'
p7505
tp7506
Rp7507
g1
(g5
S'\xcf\xfee?'
p7508
tp7509
Rp7510
tp7511
a(g1
(g5
S'\xcf\xfee?'
p7512
tp7513
Rp7514
g1
(g5
S'[\xffe?'
p7515
tp7516
Rp7517
tp7518
a(g1
(g5
S'[\xffe?'
p7519
tp7520
Rp7521
g1
(g5
S'\xde\xffe?'
p7522
tp7523
Rp7524
tp7525
a(g1
(g5
S'\xde\xffe?'
p7526
tp7527
Rp7528
g1
(g5
S'_\x00f?'
p7529
tp7530
Rp7531
tp7532
a(g1
(g5
S'_\x00f?'
p7533
tp7534
Rp7535
g1
(g5
S'\xe0\x00f?'
p7536
tp7537
Rp7538
tp7539
a(g1
(g5
S'\xe0\x00f?'
p7540
tp7541
Rp7542
g1
(g5
S'\\\x01f?'
p7543
tp7544
Rp7545
tp7546
a(g1
(g5
S'\\\x01f?'
p7547
tp7548
Rp7549
g1
(g5
S'\xe8\x01f?'
p7550
tp7551
Rp7552
tp7553
a(g1
(g5
S'\xe8\x01f?'
p7554
tp7555
Rp7556
g1
(g5
S'n\x02f?'
p7557
tp7558
Rp7559
tp7560
a(g1
(g5
S'n\x02f?'
p7561
tp7562
Rp7563
g1
(g5
S'\xf9\x02f?'
p7564
tp7565
Rp7566
tp7567
a(g1
(g5
S'\xf9\x02f?'
p7568
tp7569
Rp7570
g1
(g5
S'~\x03f?'
p7571
tp7572
Rp7573
tp7574
a(g1
(g5
S'~\x03f?'
p7575
tp7576
Rp7577
g1
(g5
S'\x05\x04f?'
p7578
tp7579
Rp7580
tp7581
a(g1
(g5
S'\x05\x04f?'
p7582
tp7583
Rp7584
g1
(g5
S'\x88\x04f?'
p7585
tp7586
Rp7587
tp7588
a(g1
(g5
S'\x88\x04f?'
p7589
tp7590
Rp7591
g1
(g5
S'\x11\x05f?'
p7592
tp7593
Rp7594
tp7595
a(g1
(g5
S'\x11\x05f?'
p7596
tp7597
Rp7598
g1
(g5
S'\x99\x05f?'
p7599
tp7600
Rp7601
tp7602
a(g1
(g5
S'\x99\x05f?'
p7603
tp7604
Rp7605
g1
(g5
S'!\x06f?'
p7606
tp7607
Rp7608
tp7609
a(g1
(g5
S'!\x06f?'
p7610
tp7611
Rp7612
g1
(g5
S'\xac\x06f?'
p7613
tp7614
Rp7615
tp7616
a(g1
(g5
S'\xac\x06f?'
p7617
tp7618
Rp7619
g1
(g5
S'4\x07f?'
p7620
tp7621
Rp7622
tp7623
a(g1
(g5
S'4\x07f?'
p7624
tp7625
Rp7626
g1
(g5
S'\xb4\x07f?'
p7627
tp7628
Rp7629
tp7630
a(g1
(g5
S'\xb4\x07f?'
p7631
tp7632
Rp7633
g1
(g5
S'A\x08f?'
p7634
tp7635
Rp7636
tp7637
a(g1
(g5
S'A\x08f?'
p7638
tp7639
Rp7640
g1
(g5
S'\xc6\x08f?'
p7641
tp7642
Rp7643
tp7644
a(g1
(g5
S'\xc6\x08f?'
p7645
tp7646
Rp7647
g1
(g5
S'I\tf?'
p7648
tp7649
Rp7650
tp7651
a(g1
(g5
S'I\tf?'
p7652
tp7653
Rp7654
g1
(g5
S'\xd1\tf?'
p7655
tp7656
Rp7657
tp7658
a(g1
(g5
S'\xd1\tf?'
p7659
tp7660
Rp7661
g1
(g5
S'V\nf?'
p7662
tp7663
Rp7664
tp7665
a(g1
(g5
S'V\nf?'
p7666
tp7667
Rp7668
g1
(g5
S'\xde\nf?'
p7669
tp7670
Rp7671
tp7672
a(g1
(g5
S'\xde\nf?'
p7673
tp7674
Rp7675
g1
(g5
S'c\x0bf?'
p7676
tp7677
Rp7678
tp7679
a(g1
(g5
S'c\x0bf?'
p7680
tp7681
Rp7682
g1
(g5
S'\xd7\x0bf?'
p7683
tp7684
Rp7685
tp7686
a(g1
(g5
S'\xd7\x0bf?'
p7687
tp7688
Rp7689
g1
(g5
S'^\x0cf?'
p7690
tp7691
Rp7692
tp7693
a(g1
(g5
S'^\x0cf?'
p7694
tp7695
Rp7696
g1
(g5
S'\xd8\x0cf?'
p7697
tp7698
Rp7699
tp7700
a(g1
(g5
S'\xd8\x0cf?'
p7701
tp7702
Rp7703
g1
(g5
S']\rf?'
p7704
tp7705
Rp7706
tp7707
a(g1
(g5
S']\rf?'
p7708
tp7709
Rp7710
g1
(g5
S'\xde\rf?'
p7711
tp7712
Rp7713
tp7714
a(g1
(g5
S'\xde\rf?'
p7715
tp7716
Rp7717
g1
(g5
S'_\x0ef?'
p7718
tp7719
Rp7720
tp7721
a(g1
(g5
S'_\x0ef?'
p7722
tp7723
Rp7724
g1
(g5
S'\xdc\x0ef?'
p7725
tp7726
Rp7727
tp7728
a(g1
(g5
S'\xdc\x0ef?'
p7729
tp7730
Rp7731
g1
(g5
S'_\x0ff?'
p7732
tp7733
Rp7734
tp7735
a(g1
(g5
S'_\x0ff?'
p7736
tp7737
Rp7738
g1
(g5
S'\xdc\x0ff?'
p7739
tp7740
Rp7741
tp7742
a(g1
(g5
S'\xdc\x0ff?'
p7743
tp7744
Rp7745
g1
(g5
S'U\x10f?'
p7746
tp7747
Rp7748
tp7749
a(g1
(g5
S'U\x10f?'
p7750
tp7751
Rp7752
g1
(g5
S'\xd5\x10f?'
p7753
tp7754
Rp7755
tp7756
a(g1
(g5
S'\xd5\x10f?'
p7757
tp7758
Rp7759
g1
(g5
S'[\x11f?'
p7760
tp7761
Rp7762
tp7763
a(g1
(g5
S'[\x11f?'
p7764
tp7765
Rp7766
g1
(g5
S'\xd9\x11f?'
p7767
tp7768
Rp7769
tp7770
a(g1
(g5
S'\xd9\x11f?'
p7771
tp7772
Rp7773
g1
(g5
S'P\x12f?'
p7774
tp7775
Rp7776
tp7777
a(g1
(g5
S'P\x12f?'
p7778
tp7779
Rp7780
g1
(g5
S'\xcf\x12f?'
p7781
tp7782
Rp7783
tp7784
a(g1
(g5
S'\xcf\x12f?'
p7785
tp7786
Rp7787
g1
(g5
S'K\x13f?'
p7788
tp7789
Rp7790
tp7791
a(g1
(g5
S'K\x13f?'
p7792
tp7793
Rp7794
g1
(g5
S'\xcb\x13f?'
p7795
tp7796
Rp7797
tp7798
a(g1
(g5
S'\xcb\x13f?'
p7799
tp7800
Rp7801
g1
(g5
S'J\x14f?'
p7802
tp7803
Rp7804
tp7805
a(g1
(g5
S'J\x14f?'
p7806
tp7807
Rp7808
g1
(g5
S'\xcb\x14f?'
p7809
tp7810
Rp7811
tp7812
a(g1
(g5
S'\xcb\x14f?'
p7813
tp7814
Rp7815
g1
(g5
S'N\x15f?'
p7816
tp7817
Rp7818
tp7819
a(g1
(g5
S'N\x15f?'
p7820
tp7821
Rp7822
g1
(g5
S'\xce\x15f?'
p7823
tp7824
Rp7825
tp7826
a(g1
(g5
S'\xce\x15f?'
p7827
tp7828
Rp7829
g1
(g5
S'F\x16f?'
p7830
tp7831
Rp7832
tp7833
a(g1
(g5
S'F\x16f?'
p7834
tp7835
Rp7836
g1
(g5
S'\xc3\x16f?'
p7837
tp7838
Rp7839
tp7840
a(g1
(g5
S'\xc3\x16f?'
p7841
tp7842
Rp7843
g1
(g5
S'2\x17f?'
p7844
tp7845
Rp7846
tp7847
a(g1
(g5
S'2\x17f?'
p7848
tp7849
Rp7850
g1
(g5
S'\xad\x17f?'
p7851
tp7852
Rp7853
tp7854
a(g1
(g5
S'\xad\x17f?'
p7855
tp7856
Rp7857
g1
(g5
S"'\x18f?"
p7858
tp7859
Rp7860
tp7861
a(g1
(g5
S"'\x18f?"
p7862
tp7863
Rp7864
g1
(g5
S'\xa5\x18f?'
p7865
tp7866
Rp7867
tp7868
a(g1
(g5
S'\xa5\x18f?'
p7869
tp7870
Rp7871
g1
(g5
S' \x19f?'
p7872
tp7873
Rp7874
tp7875
a(g1
(g5
S' \x19f?'
p7876
tp7877
Rp7878
g1
(g5
S'\xa3\x19f?'
p7879
tp7880
Rp7881
tp7882
a(g1
(g5
S'\xa3\x19f?'
p7883
tp7884
Rp7885
g1
(g5
S'\x1e\x1af?'
p7886
tp7887
Rp7888
tp7889
a(g1
(g5
S'\x1e\x1af?'
p7890
tp7891
Rp7892
g1
(g5
S'\x96\x1af?'
p7893
tp7894
Rp7895
tp7896
a(g1
(g5
S'\x96\x1af?'
p7897
tp7898
Rp7899
g1
(g5
S'\x1a\x1bf?'
p7900
tp7901
Rp7902
tp7903
a(g1
(g5
S'\x1a\x1bf?'
p7904
tp7905
Rp7906
g1
(g5
S'\x93\x1bf?'
p7907
tp7908
Rp7909
tp7910
a(g1
(g5
S'\x93\x1bf?'
p7911
tp7912
Rp7913
g1
(g5
S'\x13\x1cf?'
p7914
tp7915
Rp7916
tp7917
a(g1
(g5
S'\x13\x1cf?'
p7918
tp7919
Rp7920
g1
(g5
S'\x92\x1cf?'
p7921
tp7922
Rp7923
tp7924
a(g1
(g5
S'\x92\x1cf?'
p7925
tp7926
Rp7927
g1
(g5
S'\r\x1df?'
p7928
tp7929
Rp7930
tp7931
a(g1
(g5
S'\r\x1df?'
p7932
tp7933
Rp7934
g1
(g5
S'\x8e\x1df?'
p7935
tp7936
Rp7937
tp7938
a(g1
(g5
S'\x8e\x1df?'
p7939
tp7940
Rp7941
g1
(g5
S'\xf6\x1df?'
p7942
tp7943
Rp7944
tp7945
a(g1
(g5
S'\xf6\x1df?'
p7946
tp7947
Rp7948
g1
(g5
S's\x1ef?'
p7949
tp7950
Rp7951
tp7952
a(g1
(g5
S's\x1ef?'
p7953
tp7954
Rp7955
g1
(g5
S'\xef\x1ef?'
p7956
tp7957
Rp7958
tp7959
a(g1
(g5
S'\xef\x1ef?'
p7960
tp7961
Rp7962
g1
(g5
S'g\x1ff?'
p7963
tp7964
Rp7965
tp7966
a(g1
(g5
S'g\x1ff?'
p7967
tp7968
Rp7969
g1
(g5
S'\xdb\x1ff?'
p7970
tp7971
Rp7972
tp7973
a(g1
(g5
S'\xdb\x1ff?'
p7974
tp7975
Rp7976
g1
(g5
S'Y f?'
p7977
tp7978
Rp7979
tp7980
a(g1
(g5
S'Y f?'
p7981
tp7982
Rp7983
g1
(g5
S'\xd4 f?'
p7984
tp7985
Rp7986
tp7987
a(g1
(g5
S'\xd4 f?'
p7988
tp7989
Rp7990
g1
(g5
S'N!f?'
p7991
tp7992
Rp7993
tp7994
a(g1
(g5
S'N!f?'
p7995
tp7996
Rp7997
g1
(g5
S'\xca!f?'
p7998
tp7999
Rp8000
tp8001
a(g1
(g5
S'\xca!f?'
p8002
tp8003
Rp8004
g1
(g5
S'B"f?'
p8005
tp8006
Rp8007
tp8008
a(g1
(g5
S'B"f?'
p8009
tp8010
Rp8011
g1
(g5
S'\xba"f?'
p8012
tp8013
Rp8014
tp8015
a(g1
(g5
S'\xba"f?'
p8016
tp8017
Rp8018
g1
(g5
S';#f?'
p8019
tp8020
Rp8021
tp8022
a(g1
(g5
S';#f?'
p8023
tp8024
Rp8025
g1
(g5
S'\xb9#f?'
p8026
tp8027
Rp8028
tp8029
a(g1
(g5
S'\xb9#f?'
p8030
tp8031
Rp8032
g1
(g5
S'/$f?'
p8033
tp8034
Rp8035
tp8036
a(g1
(g5
S'/$f?'
p8037
tp8038
Rp8039
g1
(g5
S'\xa9$f?'
p8040
tp8041
Rp8042
tp8043
a(g1
(g5
S'\xa9$f?'
p8044
tp8045
Rp8046
g1
(g5
S'\x1f%f?'
p8047
tp8048
Rp8049
tp8050
a(g1
(g5
S'\x1f%f?'
p8051
tp8052
Rp8053
g1
(g5
S'\x9b%f?'
p8054
tp8055
Rp8056
tp8057
a(g1
(g5
S'\x9b%f?'
p8058
tp8059
Rp8060
g1
(g5
S'\x12&f?'
p8061
tp8062
Rp8063
tp8064
a(g1
(g5
S'\x12&f?'
p8065
tp8066
Rp8067
g1
(g5
S'\x86&f?'
p8068
tp8069
Rp8070
tp8071
a(g1
(g5
S'\x86&f?'
p8072
tp8073
Rp8074
g1
(g5
S"\x03'f?"
p8075
tp8076
Rp8077
tp8078
a(g1
(g5
S"\x03'f?"
p8079
tp8080
Rp8081
g1
(g5
S"{'f?"
p8082
tp8083
Rp8084
tp8085
a(g1
(g5
S"{'f?"
p8086
tp8087
Rp8088
g1
(g5
S"\xf2'f?"
p8089
tp8090
Rp8091
tp8092
a(g1
(g5
S"\xf2'f?"
p8093
tp8094
Rp8095
g1
(g5
S'h(f?'
p8096
tp8097
Rp8098
tp8099
a(g1
(g5
S'h(f?'
p8100
tp8101
Rp8102
g1
(g5
S'\xe5(f?'
p8103
tp8104
Rp8105
tp8106
a(g1
(g5
S'\xe5(f?'
p8107
tp8108
Rp8109
g1
(g5
S'`)f?'
p8110
tp8111
Rp8112
tp8113
a(g1
(g5
S'`)f?'
p8114
tp8115
Rp8116
g1
(g5
S'\xcd)f?'
p8117
tp8118
Rp8119
tp8120
a(g1
(g5
S'\xcd)f?'
p8121
tp8122
Rp8123
g1
(g5
S'>*f?'
p8124
tp8125
Rp8126
tp8127
a(g1
(g5
S'>*f?'
p8128
tp8129
Rp8130
g1
(g5
S'\xbe*f?'
p8131
tp8132
Rp8133
tp8134
a(g1
(g5
S'\xbe*f?'
p8135
tp8136
Rp8137
g1
(g5
S'0+f?'
p8138
tp8139
Rp8140
tp8141
a(g1
(g5
S'0+f?'
p8142
tp8143
Rp8144
g1
(g5
S'\xa3+f?'
p8145
tp8146
Rp8147
tp8148
a(g1
(g5
S'\xa3+f?'
p8149
tp8150
Rp8151
g1
(g5
S'\x18,f?'
p8152
tp8153
Rp8154
tp8155
a(g1
(g5
S'\x18,f?'
p8156
tp8157
Rp8158
g1
(g5
S'\x92,f?'
p8159
tp8160
Rp8161
tp8162
a(g1
(g5
S'\x92,f?'
p8163
tp8164
Rp8165
g1
(g5
S'\t-f?'
p8166
tp8167
Rp8168
tp8169
a(g1
(g5
S'\t-f?'
p8170
tp8171
Rp8172
g1
(g5
S'|-f?'
p8173
tp8174
Rp8175
tp8176
a(g1
(g5
S'|-f?'
p8177
tp8178
Rp8179
g1
(g5
S'\xeb-f?'
p8180
tp8181
Rp8182
tp8183
a(g1
(g5
S'\xeb-f?'
p8184
tp8185
Rp8186
g1
(g5
S'\\.f?'
p8187
tp8188
Rp8189
tp8190
a(g1
(g5
S'\\.f?'
p8191
tp8192
Rp8193
g1
(g5
S'\xcd.f?'
p8194
tp8195
Rp8196
tp8197
a(g1
(g5
S'\xcd.f?'
p8198
tp8199
Rp8200
g1
(g5
S'C/f?'
p8201
tp8202
Rp8203
tp8204
a(g1
(g5
S'C/f?'
p8205
tp8206
Rp8207
g1
(g5
S'\xb4/f?'
p8208
tp8209
Rp8210
tp8211
a(g1
(g5
S'\xb4/f?'
p8212
tp8213
Rp8214
g1
(g5
S'!0f?'
p8215
tp8216
Rp8217
tp8218
a(g1
(g5
S'!0f?'
p8219
tp8220
Rp8221
g1
(g5
S'\x970f?'
p8222
tp8223
Rp8224
tp8225
a(g1
(g5
S'\x970f?'
p8226
tp8227
Rp8228
g1
(g5
S'\x061f?'
p8229
tp8230
Rp8231
tp8232
a(g1
(g5
S'\x061f?'
p8233
tp8234
Rp8235
g1
(g5
S's1f?'
p8236
tp8237
Rp8238
tp8239
a(g1
(g5
S's1f?'
p8240
tp8241
Rp8242
g1
(g5
S'\xdf1f?'
p8243
tp8244
Rp8245
tp8246
a(g1
(g5
S'\xdf1f?'
p8247
tp8248
Rp8249
g1
(g5
S'R2f?'
p8250
tp8251
Rp8252
tp8253
a(g1
(g5
S'R2f?'
p8254
tp8255
Rp8256
g1
(g5
S'\xc82f?'
p8257
tp8258
Rp8259
tp8260
a(g1
(g5
S'\xc82f?'
p8261
tp8262
Rp8263
g1
(g5
S'=3f?'
p8264
tp8265
Rp8266
tp8267
a(g1
(g5
S'=3f?'
p8268
tp8269
Rp8270
g1
(g5
S'\xb13f?'
p8271
tp8272
Rp8273
tp8274
a(g1
(g5
S'\xb13f?'
p8275
tp8276
Rp8277
g1
(g5
S'#4f?'
p8278
tp8279
Rp8280
tp8281
a(g1
(g5
S'#4f?'
p8282
tp8283
Rp8284
g1
(g5
S'\x984f?'
p8285
tp8286
Rp8287
tp8288
a(g1
(g5
S'\x984f?'
p8289
tp8290
Rp8291
g1
(g5
S'\n5f?'
p8292
tp8293
Rp8294
tp8295
a(g1
(g5
S'\n5f?'
p8296
tp8297
Rp8298
g1
(g5
S'v5f?'
p8299
tp8300
Rp8301
tp8302
a(g1
(g5
S'v5f?'
p8303
tp8304
Rp8305
g1
(g5
S'\xeb5f?'
p8306
tp8307
Rp8308
tp8309
a(g1
(g5
S'\xeb5f?'
p8310
tp8311
Rp8312
g1
(g5
S'L6f?'
p8313
tp8314
Rp8315
tp8316
a(g1
(g5
S'L6f?'
p8317
tp8318
Rp8319
g1
(g5
S'\xb66f?'
p8320
tp8321
Rp8322
tp8323
a(g1
(g5
S'\xb66f?'
p8324
tp8325
Rp8326
g1
(g5
S',7f?'
p8327
tp8328
Rp8329
tp8330
a(g1
(g5
S',7f?'
p8331
tp8332
Rp8333
g1
(g5
S'\x9e7f?'
p8334
tp8335
Rp8336
tp8337
a(g1
(g5
S'\x9e7f?'
p8338
tp8339
Rp8340
g1
(g5
S'\x148f?'
p8341
tp8342
Rp8343
tp8344
a(g1
(g5
S'\x148f?'
p8345
tp8346
Rp8347
g1
(g5
S'|8f?'
p8348
tp8349
Rp8350
tp8351
a(g1
(g5
S'|8f?'
p8352
tp8353
Rp8354
g1
(g5
S'\xf08f?'
p8355
tp8356
Rp8357
tp8358
a(g1
(g5
S'\xf08f?'
p8359
tp8360
Rp8361
g1
(g5
S'\\9f?'
p8362
tp8363
Rp8364
tp8365
a(g1
(g5
S'\\9f?'
p8366
tp8367
Rp8368
g1
(g5
S'\xcc9f?'
p8369
tp8370
Rp8371
tp8372
a(g1
(g5
S'\xcc9f?'
p8373
tp8374
Rp8375
g1
(g5
S'?:f?'
p8376
tp8377
Rp8378
tp8379
a(g1
(g5
S'?:f?'
p8380
tp8381
Rp8382
g1
(g5
S'\xa6:f?'
p8383
tp8384
Rp8385
tp8386
a(g1
(g5
S'\xa6:f?'
p8387
tp8388
Rp8389
g1
(g5
S'\x0f;f?'
p8390
tp8391
Rp8392
tp8393
a(g1
(g5
S'\x0f;f?'
p8394
tp8395
Rp8396
g1
(g5
S'~;f?'
p8397
tp8398
Rp8399
tp8400
a(g1
(g5
S'~;f?'
p8401
tp8402
Rp8403
g1
(g5
S'\xe8;f?'
p8404
tp8405
Rp8406
tp8407
a(g1
(g5
S'\xe8;f?'
p8408
tp8409
Rp8410
g1
(g5
S'T<f?'
p8411
tp8412
Rp8413
tp8414
a(g1
(g5
S'T<f?'
p8415
tp8416
Rp8417
g1
(g5
S'\xc5<f?'
p8418
tp8419
Rp8420
tp8421
a(g1
(g5
S'\xc5<f?'
p8422
tp8423
Rp8424
g1
(g5
S'2=f?'
p8425
tp8426
Rp8427
tp8428
a(g1
(g5
S'2=f?'
p8429
tp8430
Rp8431
g1
(g5
S'\x9b=f?'
p8432
tp8433
Rp8434
tp8435
a(g1
(g5
S'\x9b=f?'
p8436
tp8437
Rp8438
g1
(g5
S'\x0e>f?'
p8439
tp8440
Rp8441
tp8442
a(g1
(g5
S'\x0e>f?'
p8443
tp8444
Rp8445
g1
(g5
S'w>f?'
p8446
tp8447
Rp8448
tp8449
a(g1
(g5
S'w>f?'
p8450
tp8451
Rp8452
g1
(g5
S'\xdf>f?'
p8453
tp8454
Rp8455
tp8456
a(g1
(g5
S'\xdf>f?'
p8457
tp8458
Rp8459
g1
(g5
S'L?f?'
p8460
tp8461
Rp8462
tp8463
a(g1
(g5
S'L?f?'
p8464
tp8465
Rp8466
g1
(g5
S'\xbb?f?'
p8467
tp8468
Rp8469
tp8470
a(g1
(g5
S'\xbb?f?'
p8471
tp8472
Rp8473
g1
(g5
S',@f?'
p8474
tp8475
Rp8476
tp8477
a(g1
(g5
S',@f?'
p8478
tp8479
Rp8480
g1
(g5
S'\x98@f?'
p8481
tp8482
Rp8483
tp8484
a(g1
(g5
S'\x98@f?'
p8485
tp8486
Rp8487
g1
(g5
S'\x02Af?'
p8488
tp8489
Rp8490
tp8491
a(g1
(g5
S'\x02Af?'
p8492
tp8493
Rp8494
g1
(g5
S'nAf?'
p8495
tp8496
Rp8497
tp8498
a(g1
(g5
S'nAf?'
p8499
tp8500
Rp8501
g1
(g5
S'\xdcAf?'
p8502
tp8503
Rp8504
tp8505
a(g1
(g5
S'\xdcAf?'
p8506
tp8507
Rp8508
g1
(g5
S'EBf?'
p8509
tp8510
Rp8511
tp8512
a(g1
(g5
S'EBf?'
p8513
tp8514
Rp8515
g1
(g5
S'\xb1Bf?'
p8516
tp8517
Rp8518
tp8519
a(g1
(g5
S'\xb1Bf?'
p8520
tp8521
Rp8522
g1
(g5
S'\x1bCf?'
p8523
tp8524
Rp8525
tp8526
a(g1
(g5
S'\x1bCf?'
p8527
tp8528
Rp8529
g1
(g5
S'\x88Cf?'
p8530
tp8531
Rp8532
tp8533
a(g1
(g5
S'\x88Cf?'
p8534
tp8535
Rp8536
g1
(g5
S'\xf7Cf?'
p8537
tp8538
Rp8539
tp8540
a(g1
(g5
S'\xf7Cf?'
p8541
tp8542
Rp8543
g1
(g5
S'aDf?'
p8544
tp8545
Rp8546
tp8547
a(g1
(g5
S'aDf?'
p8548
tp8549
Rp8550
g1
(g5
S'\xccDf?'
p8551
tp8552
Rp8553
tp8554
a(g1
(g5
S'\xccDf?'
p8555
tp8556
Rp8557
g1
(g5
S';Ef?'
p8558
tp8559
Rp8560
tp8561
a(g1
(g5
S';Ef?'
p8562
tp8563
Rp8564
g1
(g5
S'\xa7Ef?'
p8565
tp8566
Rp8567
tp8568
a(g1
(g5
S'\xa7Ef?'
p8569
tp8570
Rp8571
g1
(g5
S'\x06Ff?'
p8572
tp8573
Rp8574
tp8575
a(g1
(g5
S'\x06Ff?'
p8576
tp8577
Rp8578
g1
(g5
S'mFf?'
p8579
tp8580
Rp8581
tp8582
a(g1
(g5
S'mFf?'
p8583
tp8584
Rp8585
g1
(g5
S'\xd9Ff?'
p8586
tp8587
Rp8588
tp8589
a(g1
(g5
S'\xd9Ff?'
p8590
tp8591
Rp8592
g1
(g5
S'=Gf?'
p8593
tp8594
Rp8595
tp8596
a(g1
(g5
S'=Gf?'
p8597
tp8598
Rp8599
g1
(g5
S'\xa9Gf?'
p8600
tp8601
Rp8602
tp8603
a(g1
(g5
S'\xa9Gf?'
p8604
tp8605
Rp8606
g1
(g5
S'\x14Hf?'
p8607
tp8608
Rp8609
tp8610
a(g1
(g5
S'\x14Hf?'
p8611
tp8612
Rp8613
g1
(g5
S'~Hf?'
p8614
tp8615
Rp8616
tp8617
a(g1
(g5
S'~Hf?'
p8618
tp8619
Rp8620
g1
(g5
S'\xebHf?'
p8621
tp8622
Rp8623
tp8624
a(g1
(g5
S'\xebHf?'
p8625
tp8626
Rp8627
g1
(g5
S'VIf?'
p8628
tp8629
Rp8630
tp8631
a(g1
(g5
S'VIf?'
p8632
tp8633
Rp8634
g1
(g5
S'\xbeIf?'
p8635
tp8636
Rp8637
tp8638
a(g1
(g5
S'\xbeIf?'
p8639
tp8640
Rp8641
g1
(g5
S'&Jf?'
p8642
tp8643
Rp8644
tp8645
a(g1
(g5
S'&Jf?'
p8646
tp8647
Rp8648
g1
(g5
S'\x8dJf?'
p8649
tp8650
Rp8651
tp8652
a(g1
(g5
S'\x8dJf?'
p8653
tp8654
Rp8655
g1
(g5
S'\xf7Jf?'
p8656
tp8657
Rp8658
tp8659
a(g1
(g5
S'\xf7Jf?'
p8660
tp8661
Rp8662
g1
(g5
S'\\Kf?'
p8663
tp8664
Rp8665
tp8666
a(g1
(g5
S'\\Kf?'
p8667
tp8668
Rp8669
g1
(g5
S'\xc5Kf?'
p8670
tp8671
Rp8672
tp8673
a(g1
(g5
S'\xc5Kf?'
p8674
tp8675
Rp8676
g1
(g5
S'0Lf?'
p8677
tp8678
Rp8679
tp8680
a(g1
(g5
S'0Lf?'
p8681
tp8682
Rp8683
g1
(g5
S'\x97Lf?'
p8684
tp8685
Rp8686
tp8687
a(g1
(g5
S'\x97Lf?'
p8688
tp8689
Rp8690
g1
(g5
S'\xf4Lf?'
p8691
tp8692
Rp8693
tp8694
a(g1
(g5
S'\xf4Lf?'
p8695
tp8696
Rp8697
g1
(g5
S'YMf?'
p8698
tp8699
Rp8700
tp8701
a(g1
(g5
S'YMf?'
p8702
tp8703
Rp8704
g1
(g5
S'\xc2Mf?'
p8705
tp8706
Rp8707
tp8708
a(g1
(g5
S'\xc2Mf?'
p8709
tp8710
Rp8711
g1
(g5
S'&Nf?'
p8712
tp8713
Rp8714
tp8715
a(g1
(g5
S'&Nf?'
p8716
tp8717
Rp8718
g1
(g5
S'\x8bNf?'
p8719
tp8720
Rp8721
tp8722
a(g1
(g5
S'\x8bNf?'
p8723
tp8724
Rp8725
g1
(g5
S'\xebNf?'
p8726
tp8727
Rp8728
tp8729
a(g1
(g5
S'\xebNf?'
p8730
tp8731
Rp8732
g1
(g5
S'TOf?'
p8733
tp8734
Rp8735
tp8736
a(g1
(g5
S'TOf?'
p8737
tp8738
Rp8739
g1
(g5
S'\xbaOf?'
p8740
tp8741
Rp8742
tp8743
a(g1
(g5
S'\xbaOf?'
p8744
tp8745
Rp8746
g1
(g5
S'!Pf?'
p8747
tp8748
Rp8749
tp8750
a(g1
(g5
S'!Pf?'
p8751
tp8752
Rp8753
g1
(g5
S'\x88Pf?'
p8754
tp8755
Rp8756
tp8757
a(g1
(g5
S'\x88Pf?'
p8758
tp8759
Rp8760
g1
(g5
S'\xf5Pf?'
p8761
tp8762
Rp8763
tp8764
a(g1
(g5
S'\xf5Pf?'
p8765
tp8766
Rp8767
g1
(g5
S'\\Qf?'
p8768
tp8769
Rp8770
tp8771
a(g1
(g5
S'\\Qf?'
p8772
tp8773
Rp8774
g1
(g5
S'\xc7Qf?'
p8775
tp8776
Rp8777
tp8778
a(g1
(g5
S'\xc7Qf?'
p8779
tp8780
Rp8781
g1
(g5
S'*Rf?'
p8782
tp8783
Rp8784
tp8785
a(g1
(g5
S'*Rf?'
p8786
tp8787
Rp8788
g1
(g5
S'\x93Rf?'
p8789
tp8790
Rp8791
tp8792
a(g1
(g5
S'\x93Rf?'
p8793
tp8794
Rp8795
g1
(g5
S'\xf0Rf?'
p8796
tp8797
Rp8798
tp8799
a(g1
(g5
S'\xf0Rf?'
p8800
tp8801
Rp8802
g1
(g5
S'VSf?'
p8803
tp8804
Rp8805
tp8806
a(g1
(g5
S'VSf?'
p8807
tp8808
Rp8809
g1
(g5
S'\xb6Sf?'
p8810
tp8811
Rp8812
tp8813
a(g1
(g5
S'\xb6Sf?'
p8814
tp8815
Rp8816
g1
(g5
S'\x1eTf?'
p8817
tp8818
Rp8819
tp8820
a(g1
(g5
S'\x1eTf?'
p8821
tp8822
Rp8823
g1
(g5
S'\x82Tf?'
p8824
tp8825
Rp8826
tp8827
a(g1
(g5
S'\x82Tf?'
p8828
tp8829
Rp8830
g1
(g5
S'\xe8Tf?'
p8831
tp8832
Rp8833
tp8834
a(g1
(g5
S'\xe8Tf?'
p8835
tp8836
Rp8837
g1
(g5
S'HUf?'
p8838
tp8839
Rp8840
tp8841
a(g1
(g5
S'HUf?'
p8842
tp8843
Rp8844
g1
(g5
S'\xacUf?'
p8845
tp8846
Rp8847
tp8848
a(g1
(g5
S'\xacUf?'
p8849
tp8850
Rp8851
g1
(g5
S'\x14Vf?'
p8852
tp8853
Rp8854
tp8855
a(g1
(g5
S'\x14Vf?'
p8856
tp8857
Rp8858
g1
(g5
S'uVf?'
p8859
tp8860
Rp8861
tp8862
a(g1
(g5
S'uVf?'
p8863
tp8864
Rp8865
g1
(g5
S'\xd2Vf?'
p8866
tp8867
Rp8868
tp8869
a(g1
(g5
S'\xd2Vf?'
p8870
tp8871
Rp8872
g1
(g5
S'0Wf?'
p8873
tp8874
Rp8875
tp8876
a(g1
(g5
S'0Wf?'
p8877
tp8878
Rp8879
g1
(g5
S'\x90Wf?'
p8880
tp8881
Rp8882
tp8883
a(g1
(g5
S'\x90Wf?'
p8884
tp8885
Rp8886
g1
(g5
S'\xf5Wf?'
p8887
tp8888
Rp8889
tp8890
a(g1
(g5
S'\xf5Wf?'
p8891
tp8892
Rp8893
g1
(g5
S'ZXf?'
p8894
tp8895
Rp8896
tp8897
a(g1
(g5
S'ZXf?'
p8898
tp8899
Rp8900
g1
(g5
S'\xaeXf?'
p8901
tp8902
Rp8903
tp8904
a(g1
(g5
S'\xaeXf?'
p8905
tp8906
Rp8907
g1
(g5
S'\x14Yf?'
p8908
tp8909
Rp8910
tp8911
a(g1
(g5
S'\x14Yf?'
p8912
tp8913
Rp8914
g1
(g5
S'rYf?'
p8915
tp8916
Rp8917
tp8918
a(g1
(g5
S'rYf?'
p8919
tp8920
Rp8921
g1
(g5
S'\xcfYf?'
p8922
tp8923
Rp8924
tp8925
a(g1
(g5
S'\xcfYf?'
p8926
tp8927
Rp8928
g1
(g5
S'5Zf?'
p8929
tp8930
Rp8931
tp8932
a(g1
(g5
S'5Zf?'
p8933
tp8934
Rp8935
g1
(g5
S'\x9cZf?'
p8936
tp8937
Rp8938
tp8939
a(g1
(g5
S'\x9cZf?'
p8940
tp8941
Rp8942
g1
(g5
S'\xfeZf?'
p8943
tp8944
Rp8945
tp8946
a(g1
(g5
S'\xfeZf?'
p8947
tp8948
Rp8949
g1
(g5
S'c[f?'
p8950
tp8951
Rp8952
tp8953
a(g1
(g5
S'c[f?'
p8954
tp8955
Rp8956
g1
(g5
S'\xc5[f?'
p8957
tp8958
Rp8959
tp8960
a(g1
(g5
S'\xc5[f?'
p8961
tp8962
Rp8963
g1
(g5
S'&\\f?'
p8964
tp8965
Rp8966
tp8967
a(g1
(g5
S'&\\f?'
p8968
tp8969
Rp8970
g1
(g5
S'\x80\\f?'
p8971
tp8972
Rp8973
tp8974
a(g1
(g5
S'\x80\\f?'
p8975
tp8976
Rp8977
g1
(g5
S'\xe3\\f?'
p8978
tp8979
Rp8980
tp8981
a(g1
(g5
S'\xe3\\f?'
p8982
tp8983
Rp8984
g1
(g5
S'F]f?'
p8985
tp8986
Rp8987
tp8988
a(g1
(g5
S'F]f?'
p8989
tp8990
Rp8991
g1
(g5
S'\xa8]f?'
p8992
tp8993
Rp8994
tp8995
a(g1
(g5
S'\xa8]f?'
p8996
tp8997
Rp8998
g1
(g5
S'\t^f?'
p8999
tp9000
Rp9001
tp9002
a(g1
(g5
S'\t^f?'
p9003
tp9004
Rp9005
g1
(g5
S'f^f?'
p9006
tp9007
Rp9008
tp9009
a(g1
(g5
S'f^f?'
p9010
tp9011
Rp9012
g1
(g5
S'\xb8^f?'
p9013
tp9014
Rp9015
tp9016
a(g1
(g5
S'\xb8^f?'
p9017
tp9018
Rp9019
g1
(g5
S'\x1c_f?'
p9020
tp9021
Rp9022
tp9023
a(g1
(g5
S'\x1c_f?'
p9024
tp9025
Rp9026
g1
(g5
S'v_f?'
p9027
tp9028
Rp9029
tp9030
a(g1
(g5
S'v_f?'
p9031
tp9032
Rp9033
g1
(g5
S'\xd7_f?'
p9034
tp9035
Rp9036
tp9037
a(g1
(g5
S'\xd7_f?'
p9038
tp9039
Rp9040
g1
(g5
S';`f?'
p9041
tp9042
Rp9043
tp9044
a(g1
(g5
S';`f?'
p9045
tp9046
Rp9047
g1
(g5
S'\x94`f?'
p9048
tp9049
Rp9050
tp9051
a(g1
(g5
S'\x94`f?'
p9052
tp9053
Rp9054
g1
(g5
S'\xf7`f?'
p9055
tp9056
Rp9057
tp9058
a(g1
(g5
S'\xf7`f?'
p9059
tp9060
Rp9061
g1
(g5
S'Vaf?'
p9062
tp9063
Rp9064
tp9065
a(g1
(g5
S'Vaf?'
p9066
tp9067
Rp9068
g1
(g5
S'\xbdaf?'
p9069
tp9070
Rp9071
tp9072
a(g1
(g5
S'\xbdaf?'
p9073
tp9074
Rp9075
g1
(g5
S'\x15bf?'
p9076
tp9077
Rp9078
tp9079
a(g1
(g5
S'\x15bf?'
p9080
tp9081
Rp9082
g1
(g5
S'sbf?'
p9083
tp9084
Rp9085
tp9086
a(g1
(g5
S'sbf?'
p9087
tp9088
Rp9089
g1
(g5
S'\xcfbf?'
p9090
tp9091
Rp9092
tp9093
a(g1
(g5
S'\xcfbf?'
p9094
tp9095
Rp9096
g1
(g5
S'5cf?'
p9097
tp9098
Rp9099
tp9100
a(g1
(g5
S'5cf?'
p9101
tp9102
Rp9103
g1
(g5
S'\x96cf?'
p9104
tp9105
Rp9106
tp9107
a(g1
(g5
S'\x96cf?'
p9108
tp9109
Rp9110
g1
(g5
S'\xeecf?'
p9111
tp9112
Rp9113
tp9114
a(g1
(g5
S'\xeecf?'
p9115
tp9116
Rp9117
g1
(g5
S'Rdf?'
p9118
tp9119
Rp9120
tp9121
a(g1
(g5
S'Rdf?'
p9122
tp9123
Rp9124
g1
(g5
S'\xb5df?'
p9125
tp9126
Rp9127
tp9128
a(g1
(g5
S'\xb5df?'
p9129
tp9130
Rp9131
g1
(g5
S'\x11ef?'
p9132
tp9133
Rp9134
tp9135
a(g1
(g5
S'\x11ef?'
p9136
tp9137
Rp9138
g1
(g5
S'sef?'
p9139
tp9140
Rp9141
tp9142
a(g1
(g5
S'sef?'
p9143
tp9144
Rp9145
g1
(g5
S'\xccef?'
p9146
tp9147
Rp9148
tp9149
a(g1
(g5
S'\xccef?'
p9150
tp9151
Rp9152
g1
(g5
S'-ff?'
p9153
tp9154
Rp9155
tp9156
a(g1
(g5
S'-ff?'
p9157
tp9158
Rp9159
g1
(g5
S'\x8aff?'
p9160
tp9161
Rp9162
tp9163
a(g1
(g5
S'\x8aff?'
p9164
tp9165
Rp9166
g1
(g5
S'\xe5ff?'
p9167
tp9168
Rp9169
tp9170
a(g1
(g5
S'\xe5ff?'
p9171
tp9172
Rp9173
g1
(g5
S'Egf?'
p9174
tp9175
Rp9176
tp9177
a(g1
(g5
S'Egf?'
p9178
tp9179
Rp9180
g1
(g5
S'\xa2gf?'
p9181
tp9182
Rp9183
tp9184
a(g1
(g5
S'\xa2gf?'
p9185
tp9186
Rp9187
g1
(g5
S'\x04hf?'
p9188
tp9189
Rp9190
tp9191
a(g1
(g5
S'\x04hf?'
p9192
tp9193
Rp9194
g1
(g5
S'ahf?'
p9195
tp9196
Rp9197
tp9198
a(g1
(g5
S'ahf?'
p9199
tp9200
Rp9201
g1
(g5
S'\xc0hf?'
p9202
tp9203
Rp9204
tp9205
a(g1
(g5
S'\xc0hf?'
p9206
tp9207
Rp9208
g1
(g5
S'"if?'
p9209
tp9210
Rp9211
tp9212
a(g1
(g5
S'"if?'
p9213
tp9214
Rp9215
g1
(g5
S'\x81if?'
p9216
tp9217
Rp9218
tp9219
a(g1
(g5
S'\x81if?'
p9220
tp9221
Rp9222
g1
(g5
S'\xdeif?'
p9223
tp9224
Rp9225
tp9226
a(g1
(g5
S'\xdeif?'
p9227
tp9228
Rp9229
g1
(g5
S'1jf?'
p9230
tp9231
Rp9232
tp9233
a(g1
(g5
S'1jf?'
p9234
tp9235
Rp9236
g1
(g5
S'\x8cjf?'
p9237
tp9238
Rp9239
tp9240
a(g1
(g5
S'\x8cjf?'
p9241
tp9242
Rp9243
g1
(g5
S'\xeejf?'
p9244
tp9245
Rp9246
tp9247
a(g1
(g5
S'\xeejf?'
p9248
tp9249
Rp9250
g1
(g5
S'Gkf?'
p9251
tp9252
Rp9253
tp9254
a(g1
(g5
S'Gkf?'
p9255
tp9256
Rp9257
g1
(g5
S'\xa8kf?'
p9258
tp9259
Rp9260
tp9261
a(g1
(g5
S'\xa8kf?'
p9262
tp9263
Rp9264
g1
(g5
S'\x07lf?'
p9265
tp9266
Rp9267
tp9268
a(g1
(g5
S'\x07lf?'
p9269
tp9270
Rp9271
g1
(g5
S'[lf?'
p9272
tp9273
Rp9274
tp9275
a(g1
(g5
S'[lf?'
p9276
tp9277
Rp9278
g1
(g5
S'\xb9lf?'
p9279
tp9280
Rp9281
tp9282
a(g1
(g5
S'\xb9lf?'
p9283
tp9284
Rp9285
g1
(g5
S'\x14mf?'
p9286
tp9287
Rp9288
tp9289
a(g1
(g5
S'\x14mf?'
p9290
tp9291
Rp9292
g1
(g5
S'qmf?'
p9293
tp9294
Rp9295
tp9296
a(g1
(g5
S'qmf?'
p9297
tp9298
Rp9299
g1
(g5
S'\xcfmf?'
p9300
tp9301
Rp9302
tp9303
a(g1
(g5
S'\xcfmf?'
p9304
tp9305
Rp9306
g1
(g5
S'&nf?'
p9307
tp9308
Rp9309
tp9310
a(g1
(g5
S'&nf?'
p9311
tp9312
Rp9313
g1
(g5
S'\x86nf?'
p9314
tp9315
Rp9316
tp9317
a(g1
(g5
S'\x86nf?'
p9318
tp9319
Rp9320
g1
(g5
S'\xe1nf?'
p9321
tp9322
Rp9323
tp9324
a(g1
(g5
S'\xe1nf?'
p9325
tp9326
Rp9327
g1
(g5
S'<of?'
p9328
tp9329
Rp9330
tp9331
a(g1
(g5
S'<of?'
p9332
tp9333
Rp9334
g1
(g5
S'\x93of?'
p9335
tp9336
Rp9337
tp9338
a(g1
(g5
S'\x93of?'
p9339
tp9340
Rp9341
g1
(g5
S'\xe9of?'
p9342
tp9343
Rp9344
tp9345
a(g1
(g5
S'\xe9of?'
p9346
tp9347
Rp9348
g1
(g5
S'Bpf?'
p9349
tp9350
Rp9351
tp9352
a(g1
(g5
S'Bpf?'
p9353
tp9354
Rp9355
g1
(g5
S'\x9bpf?'
p9356
tp9357
Rp9358
tp9359
a(g1
(g5
S'\x9bpf?'
p9360
tp9361
Rp9362
g1
(g5
S'\xf4pf?'
p9363
tp9364
Rp9365
tp9366
a(g1
(g5
S'\xf4pf?'
p9367
tp9368
Rp9369
g1
(g5
S'Nqf?'
p9370
tp9371
Rp9372
tp9373
a(g1
(g5
S'Nqf?'
p9374
tp9375
Rp9376
g1
(g5
S'\xaeqf?'
p9377
tp9378
Rp9379
tp9380
a(g1
(g5
S'\xaeqf?'
p9381
tp9382
Rp9383
g1
(g5
S'\xffqf?'
p9384
tp9385
Rp9386
tp9387
a(g1
(g5
S'\xffqf?'
p9388
tp9389
Rp9390
g1
(g5
S'Zrf?'
p9391
tp9392
Rp9393
tp9394
a(g1
(g5
S'Zrf?'
p9395
tp9396
Rp9397
g1
(g5
S'\xb1rf?'
p9398
tp9399
Rp9400
tp9401
a(g1
(g5
S'\xb1rf?'
p9402
tp9403
Rp9404
g1
(g5
S'\x0bsf?'
p9405
tp9406
Rp9407
tp9408
a(g1
(g5
S'\x0bsf?'
p9409
tp9410
Rp9411
g1
(g5
S'asf?'
p9412
tp9413
Rp9414
tp9415
a(g1
(g5
S'asf?'
p9416
tp9417
Rp9418
g1
(g5
S'\xbesf?'
p9419
tp9420
Rp9421
tp9422
a(g1
(g5
S'\xbesf?'
p9423
tp9424
Rp9425
g1
(g5
S'\x14tf?'
p9426
tp9427
Rp9428
tp9429
a(g1
(g5
S'\x14tf?'
p9430
tp9431
Rp9432
g1
(g5
S'ptf?'
p9433
tp9434
Rp9435
tp9436
a(g1
(g5
S'ptf?'
p9437
tp9438
Rp9439
g1
(g5
S'\xcctf?'
p9440
tp9441
Rp9442
tp9443
a(g1
(g5
S'\xcctf?'
p9444
tp9445
Rp9446
g1
(g5
S'$uf?'
p9447
tp9448
Rp9449
tp9450
a(g1
(g5
S'$uf?'
p9451
tp9452
Rp9453
g1
(g5
S'wuf?'
p9454
tp9455
Rp9456
tp9457
a(g1
(g5
S'wuf?'
p9458
tp9459
Rp9460
g1
(g5
S'\xc9uf?'
p9461
tp9462
Rp9463
tp9464
a(g1
(g5
S'\xc9uf?'
p9465
tp9466
Rp9467
g1
(g5
S'$vf?'
p9468
tp9469
Rp9470
tp9471
a(g1
(g5
S'$vf?'
p9472
tp9473
Rp9474
g1
(g5
S'yvf?'
p9475
tp9476
Rp9477
tp9478
a(g1
(g5
S'yvf?'
p9479
tp9480
Rp9481
g1
(g5
S'\xcfvf?'
p9482
tp9483
Rp9484
tp9485
a(g1
(g5
S'\xcfvf?'
p9486
tp9487
Rp9488
g1
(g5
S'$wf?'
p9489
tp9490
Rp9491
tp9492
a(g1
(g5
S'$wf?'
p9493
tp9494
Rp9495
g1
(g5
S'uwf?'
p9496
tp9497
Rp9498
tp9499
a(g1
(g5
S'uwf?'
p9500
tp9501
Rp9502
g1
(g5
S'\xcawf?'
p9503
tp9504
Rp9505
tp9506
a(g1
(g5
S'\xcawf?'
p9507
tp9508
Rp9509
g1
(g5
S'\x1cxf?'
p9510
tp9511
Rp9512
tp9513
a(g1
(g5
S'\x1cxf?'
p9514
tp9515
Rp9516
g1
(g5
S'xxf?'
p9517
tp9518
Rp9519
tp9520
a(g1
(g5
S'xxf?'
p9521
tp9522
Rp9523
g1
(g5
S'\xccxf?'
p9524
tp9525
Rp9526
tp9527
a(g1
(g5
S'\xccxf?'
p9528
tp9529
Rp9530
g1
(g5
S'\x1eyf?'
p9531
tp9532
Rp9533
tp9534
a(g1
(g5
S'\x1eyf?'
p9535
tp9536
Rp9537
g1
(g5
S'xyf?'
p9538
tp9539
Rp9540
tp9541
a(g1
(g5
S'xyf?'
p9542
tp9543
Rp9544
g1
(g5
S'\xcbyf?'
p9545
tp9546
Rp9547
tp9548
a(g1
(g5
S'\xcbyf?'
p9549
tp9550
Rp9551
g1
(g5
S'\x1ezf?'
p9552
tp9553
Rp9554
tp9555
a(g1
(g5
S'\x1ezf?'
p9556
tp9557
Rp9558
g1
(g5
S'vzf?'
p9559
tp9560
Rp9561
tp9562
a(g1
(g5
S'vzf?'
p9563
tp9564
Rp9565
g1
(g5
S'\xc9zf?'
p9566
tp9567
Rp9568
tp9569
a(g1
(g5
S'\xc9zf?'
p9570
tp9571
Rp9572
g1
(g5
S'\x1a{f?'
p9573
tp9574
Rp9575
tp9576
a(g1
(g5
S'\x1a{f?'
p9577
tp9578
Rp9579
g1
(g5
S't{f?'
p9580
tp9581
Rp9582
tp9583
a(g1
(g5
S't{f?'
p9584
tp9585
Rp9586
g1
(g5
S'\xc1{f?'
p9587
tp9588
Rp9589
tp9590
a(g1
(g5
S'\xc1{f?'
p9591
tp9592
Rp9593
g1
(g5
S'\x19|f?'
p9594
tp9595
Rp9596
tp9597
a(g1
(g5
S'\x19|f?'
p9598
tp9599
Rp9600
g1
(g5
S'q|f?'
p9601
tp9602
Rp9603
tp9604
a(g1
(g5
S'q|f?'
p9605
tp9606
Rp9607
g1
(g5
S'\xbd|f?'
p9608
tp9609
Rp9610
tp9611
a(g1
(g5
S'\xbd|f?'
p9612
tp9613
Rp9614
g1
(g5
S'\x12}f?'
p9615
tp9616
Rp9617
tp9618
a(g1
(g5
S'\x12}f?'
p9619
tp9620
Rp9621
g1
(g5
S'g}f?'
p9622
tp9623
Rp9624
tp9625
a(g1
(g5
S'g}f?'
p9626
tp9627
Rp9628
g1
(g5
S'\xba}f?'
p9629
tp9630
Rp9631
tp9632
a(g1
(g5
S'\xba}f?'
p9633
tp9634
Rp9635
g1
(g5
S'\x14~f?'
p9636
tp9637
Rp9638
tp9639
a(g1
(g5
S'\x14~f?'
p9640
tp9641
Rp9642
g1
(g5
S'k~f?'
p9643
tp9644
Rp9645
tp9646
a(g1
(g5
S'k~f?'
p9647
tp9648
Rp9649
g1
(g5
S'\xbf~f?'
p9650
tp9651
Rp9652
tp9653
a(g1
(g5
S'\xbf~f?'
p9654
tp9655
Rp9656
g1
(g5
S'\x16\x7ff?'
p9657
tp9658
Rp9659
tp9660
a(g1
(g5
S'\x16\x7ff?'
p9661
tp9662
Rp9663
g1
(g5
S'f\x7ff?'
p9664
tp9665
Rp9666
tp9667
a(g1
(g5
S'f\x7ff?'
p9668
tp9669
Rp9670
g1
(g5
S'\xc0\x7ff?'
p9671
tp9672
Rp9673
tp9674
a(g1
(g5
S'\xc0\x7ff?'
p9675
tp9676
Rp9677
g1
(g5
S'\x18\x80f?'
p9678
tp9679
Rp9680
tp9681
a(g1
(g5
S'\x18\x80f?'
p9682
tp9683
Rp9684
g1
(g5
S'm\x80f?'
p9685
tp9686
Rp9687
tp9688
a(g1
(g5
S'm\x80f?'
p9689
tp9690
Rp9691
g1
(g5
S'\xbf\x80f?'
p9692
tp9693
Rp9694
tp9695
a(g1
(g5
S'\xbf\x80f?'
p9696
tp9697
Rp9698
g1
(g5
S'\x15\x81f?'
p9699
tp9700
Rp9701
tp9702
a(g1
(g5
S'\x15\x81f?'
p9703
tp9704
Rp9705
g1
(g5
S'a\x81f?'
p9706
tp9707
Rp9708
tp9709
a(g1
(g5
S'a\x81f?'
p9710
tp9711
Rp9712
g1
(g5
S'\xb7\x81f?'
p9713
tp9714
Rp9715
tp9716
a(g1
(g5
S'\xb7\x81f?'
p9717
tp9718
Rp9719
g1
(g5
S'\x07\x82f?'
p9720
tp9721
Rp9722
tp9723
a(g1
(g5
S'\x07\x82f?'
p9724
tp9725
Rp9726
g1
(g5
S'X\x82f?'
p9727
tp9728
Rp9729
tp9730
a(g1
(g5
S'X\x82f?'
p9731
tp9732
Rp9733
g1
(g5
S'\xa7\x82f?'
p9734
tp9735
Rp9736
tp9737
a(g1
(g5
S'\xa7\x82f?'
p9738
tp9739
Rp9740
g1
(g5
S'\xfe\x82f?'
p9741
tp9742
Rp9743
tp9744
a(g1
(g5
S'\xfe\x82f?'
p9745
tp9746
Rp9747
g1
(g5
S'S\x83f?'
p9748
tp9749
Rp9750
tp9751
a(g1
(g5
S'S\x83f?'
p9752
tp9753
Rp9754
g1
(g5
S'\xa1\x83f?'
p9755
tp9756
Rp9757
tp9758
a(g1
(g5
S'\xa1\x83f?'
p9759
tp9760
Rp9761
g1
(g5
S'\xf8\x83f?'
p9762
tp9763
Rp9764
tp9765
a(g1
(g5
S'\xf8\x83f?'
p9766
tp9767
Rp9768
g1
(g5
S'I\x84f?'
p9769
tp9770
Rp9771
tp9772
a(g1
(g5
S'I\x84f?'
p9773
tp9774
Rp9775
g1
(g5
S'\x9f\x84f?'
p9776
tp9777
Rp9778
tp9779
a(g1
(g5
S'\x9f\x84f?'
p9780
tp9781
Rp9782
g1
(g5
S'\xf0\x84f?'
p9783
tp9784
Rp9785
tp9786
a(g1
(g5
S'\xf0\x84f?'
p9787
tp9788
Rp9789
g1
(g5
S'B\x85f?'
p9790
tp9791
Rp9792
tp9793
a(g1
(g5
S'B\x85f?'
p9794
tp9795
Rp9796
g1
(g5
S'\x96\x85f?'
p9797
tp9798
Rp9799
tp9800
a(g1
(g5
S'\x96\x85f?'
p9801
tp9802
Rp9803
g1
(g5
S'\xe6\x85f?'
p9804
tp9805
Rp9806
tp9807
a(g1
(g5
S'\xe6\x85f?'
p9808
tp9809
Rp9810
g1
(g5
S'4\x86f?'
p9811
tp9812
Rp9813
tp9814
a(g1
(g5
S'4\x86f?'
p9815
tp9816
Rp9817
g1
(g5
S'\x82\x86f?'
p9818
tp9819
Rp9820
tp9821
a(g1
(g5
S'\x82\x86f?'
p9822
tp9823
Rp9824
g1
(g5
S'\xd2\x86f?'
p9825
tp9826
Rp9827
tp9828
a(g1
(g5
S'\xd2\x86f?'
p9829
tp9830
Rp9831
g1
(g5
S'%\x87f?'
p9832
tp9833
Rp9834
tp9835
a(g1
(g5
S'%\x87f?'
p9836
tp9837
Rp9838
g1
(g5
S'r\x87f?'
p9839
tp9840
Rp9841
tp9842
a(g1
(g5
S'r\x87f?'
p9843
tp9844
Rp9845
g1
(g5
S'\xc3\x87f?'
p9846
tp9847
Rp9848
tp9849
a(g1
(g5
S'\xc3\x87f?'
p9850
tp9851
Rp9852
g1
(g5
S'\x14\x88f?'
p9853
tp9854
Rp9855
tp9856
a(g1
(g5
S'\x14\x88f?'
p9857
tp9858
Rp9859
g1
(g5
S'k\x88f?'
p9860
tp9861
Rp9862
tp9863
a(g1
(g5
S'k\x88f?'
p9864
tp9865
Rp9866
g1
(g5
S'\xb6\x88f?'
p9867
tp9868
Rp9869
tp9870
a(g1
(g5
S'\xb6\x88f?'
p9871
tp9872
Rp9873
g1
(g5
S'\t\x89f?'
p9874
tp9875
Rp9876
tp9877
a(g1
(g5
S'\t\x89f?'
p9878
tp9879
Rp9880
g1
(g5
S'W\x89f?'
p9881
tp9882
Rp9883
tp9884
a(g1
(g5
S'W\x89f?'
p9885
tp9886
Rp9887
g1
(g5
S'\xa5\x89f?'
p9888
tp9889
Rp9890
tp9891
a(g1
(g5
S'\xa5\x89f?'
p9892
tp9893
Rp9894
g1
(g5
S'\xfb\x89f?'
p9895
tp9896
Rp9897
tp9898
a(g1
(g5
S'\xfb\x89f?'
p9899
tp9900
Rp9901
g1
(g5
S'K\x8af?'
p9902
tp9903
Rp9904
tp9905
a(g1
(g5
S'K\x8af?'
p9906
tp9907
Rp9908
g1
(g5
S'\xa3\x8af?'
p9909
tp9910
Rp9911
tp9912
a(g1
(g5
S'\xa3\x8af?'
p9913
tp9914
Rp9915
g1
(g5
S'\xee\x8af?'
p9916
tp9917
Rp9918
tp9919
a(g1
(g5
S'\xee\x8af?'
p9920
tp9921
Rp9922
g1
(g5
S'?\x8bf?'
p9923
tp9924
Rp9925
tp9926
a(g1
(g5
S'?\x8bf?'
p9927
tp9928
Rp9929
g1
(g5
S'\x8e\x8bf?'
p9930
tp9931
Rp9932
tp9933
a(g1
(g5
S'\x8e\x8bf?'
p9934
tp9935
Rp9936
g1
(g5
S'\xda\x8bf?'
p9937
tp9938
Rp9939
tp9940
a(g1
(g5
S'\xda\x8bf?'
p9941
tp9942
Rp9943
g1
(g5
S'-\x8cf?'
p9944
tp9945
Rp9946
tp9947
a(g1
(g5
S'-\x8cf?'
p9948
tp9949
Rp9950
g1
(g5
S'v\x8cf?'
p9951
tp9952
Rp9953
tp9954
a(g1
(g5
S'v\x8cf?'
p9955
tp9956
Rp9957
g1
(g5
S'\xc7\x8cf?'
p9958
tp9959
Rp9960
tp9961
a(g1
(g5
S'\xc7\x8cf?'
p9962
tp9963
Rp9964
g1
(g5
S'\x19\x8df?'
p9965
tp9966
Rp9967
tp9968
a(g1
(g5
S'\x19\x8df?'
p9969
tp9970
Rp9971
g1
(g5
S'f\x8df?'
p9972
tp9973
Rp9974
tp9975
a(g1
(g5
S'f\x8df?'
p9976
tp9977
Rp9978
g1
(g5
S'\xb3\x8df?'
p9979
tp9980
Rp9981
tp9982
a(g1
(g5
S'\xb3\x8df?'
p9983
tp9984
Rp9985
g1
(g5
S'\x04\x8ef?'
p9986
tp9987
Rp9988
tp9989
a(g1
(g5
S'\x04\x8ef?'
p9990
tp9991
Rp9992
g1
(g5
S'O\x8ef?'
p9993
tp9994
Rp9995
tp9996
a(g1
(g5
S'O\x8ef?'
p9997
tp9998
Rp9999
g1
(g5
S'\x9e\x8ef?'
p10000
tp10001
Rp10002
tp10003
a(g1
(g5
S'\x9e\x8ef?'
p10004
tp10005
Rp10006
g1
(g5
S'\xea\x8ef?'
p10007
tp10008
Rp10009
tp10010
a(g1
(g5
S'\xea\x8ef?'
p10011
tp10012
Rp10013
g1
(g5
S':\x8ff?'
p10014
tp10015
Rp10016
tp10017
a(g1
(g5
S':\x8ff?'
p10018
tp10019
Rp10020
g1
(g5
S'\x8e\x8ff?'
p10021
tp10022
Rp10023
tp10024
a(g1
(g5
S'\x8e\x8ff?'
p10025
tp10026
Rp10027
g1
(g5
S'\xe1\x8ff?'
p10028
tp10029
Rp10030
tp10031
a(g1
(g5
S'\xe1\x8ff?'
p10032
tp10033
Rp10034
g1
(g5
S'5\x90f?'
p10035
tp10036
Rp10037
tp10038
a(g1
(g5
S'5\x90f?'
p10039
tp10040
Rp10041
g1
(g5
S'\x81\x90f?'
p10042
tp10043
Rp10044
tp10045
a(g1
(g5
S'\x81\x90f?'
p10046
tp10047
Rp10048
g1
(g5
S'\xd2\x90f?'
p10049
tp10050
Rp10051
tp10052
a(g1
(g5
S'\xd2\x90f?'
p10053
tp10054
Rp10055
g1
(g5
S'\x1d\x91f?'
p10056
tp10057
Rp10058
tp10059
a(g1
(g5
S'\x1d\x91f?'
p10060
tp10061
Rp10062
g1
(g5
S'k\x91f?'
p10063
tp10064
Rp10065
tp10066
a(g1
(g5
S'k\x91f?'
p10067
tp10068
Rp10069
g1
(g5
S'\xbd\x91f?'
p10070
tp10071
Rp10072
tp10073
a(g1
(g5
S'\xbd\x91f?'
p10074
tp10075
Rp10076
g1
(g5
S'\x06\x92f?'
p10077
tp10078
Rp10079
tp10080
a(g1
(g5
S'\x06\x92f?'
p10081
tp10082
Rp10083
g1
(g5
S'X\x92f?'
p10084
tp10085
Rp10086
tp10087
a(g1
(g5
S'X\x92f?'
p10088
tp10089
Rp10090
g1
(g5
S'\x9f\x92f?'
p10091
tp10092
Rp10093
tp10094
a(g1
(g5
S'\x9f\x92f?'
p10095
tp10096
Rp10097
g1
(g5
S'\xef\x92f?'
p10098
tp10099
Rp10100
tp10101
a(g1
(g5
S'\xef\x92f?'
p10102
tp10103
Rp10104
g1
(g5
S'<\x93f?'
p10105
tp10106
Rp10107
tp10108
a(g1
(g5
S'<\x93f?'
p10109
tp10110
Rp10111
g1
(g5
S'\x8d\x93f?'
p10112
tp10113
Rp10114
tp10115
a(g1
(g5
S'\x8d\x93f?'
p10116
tp10117
Rp10118
g1
(g5
S'\xde\x93f?'
p10119
tp10120
Rp10121
tp10122
a(g1
(g5
S'\xde\x93f?'
p10123
tp10124
Rp10125
g1
(g5
S'.\x94f?'
p10126
tp10127
Rp10128
tp10129
a(g1
(g5
S'.\x94f?'
p10130
tp10131
Rp10132
g1
(g5
S'|\x94f?'
p10133
tp10134
Rp10135
tp10136
a(g1
(g5
S'|\x94f?'
p10137
tp10138
Rp10139
g1
(g5
S'\xca\x94f?'
p10140
tp10141
Rp10142
tp10143
a(g1
(g5
S'\xca\x94f?'
p10144
tp10145
Rp10146
g1
(g5
S'\x1b\x95f?'
p10147
tp10148
Rp10149
tp10150
a(g1
(g5
S'\x1b\x95f?'
p10151
tp10152
Rp10153
g1
(g5
S'h\x95f?'
p10154
tp10155
Rp10156
tp10157
a(g1
(g5
S'h\x95f?'
p10158
tp10159
Rp10160
g1
(g5
S'\xb5\x95f?'
p10161
tp10162
Rp10163
tp10164
a(g1
(g5
S'\xb5\x95f?'
p10165
tp10166
Rp10167
g1
(g5
S'\x05\x96f?'
p10168
tp10169
Rp10170
tp10171
a(g1
(g5
S'\x05\x96f?'
p10172
tp10173
Rp10174
g1
(g5
S'U\x96f?'
p10175
tp10176
Rp10177
tp10178
a(g1
(g5
S'U\x96f?'
p10179
tp10180
Rp10181
g1
(g5
S'\xa1\x96f?'
p10182
tp10183
Rp10184
tp10185
a(g1
(g5
S'\xa1\x96f?'
p10186
tp10187
Rp10188
g1
(g5
S'\xe9\x96f?'
p10189
tp10190
Rp10191
tp10192
a(g1
(g5
S'\xe9\x96f?'
p10193
tp10194
Rp10195
g1
(g5
S'9\x97f?'
p10196
tp10197
Rp10198
tp10199
a(g1
(g5
S'9\x97f?'
p10200
tp10201
Rp10202
g1
(g5
S'\x7f\x97f?'
p10203
tp10204
Rp10205
tp10206
a(g1
(g5
S'\x7f\x97f?'
p10207
tp10208
Rp10209
g1
(g5
S'\xc9\x97f?'
p10210
tp10211
Rp10212
tp10213
a(g1
(g5
S'\xc9\x97f?'
p10214
tp10215
Rp10216
g1
(g5
S'\x14\x98f?'
p10217
tp10218
Rp10219
tp10220
a(g1
(g5
S'\x14\x98f?'
p10221
tp10222
Rp10223
g1
(g5
S']\x98f?'
p10224
tp10225
Rp10226
tp10227
a(g1
(g5
S']\x98f?'
p10228
tp10229
Rp10230
g1
(g5
S'\xa8\x98f?'
p10231
tp10232
Rp10233
tp10234
a(g1
(g5
S'\xa8\x98f?'
p10235
tp10236
Rp10237
g1
(g5
S'\xf4\x98f?'
p10238
tp10239
Rp10240
tp10241
a(g1
(g5
S'\xf4\x98f?'
p10242
tp10243
Rp10244
g1
(g5
S'?\x99f?'
p10245
tp10246
Rp10247
tp10248
a(g1
(g5
S'?\x99f?'
p10249
tp10250
Rp10251
g1
(g5
S'\x87\x99f?'
p10252
tp10253
Rp10254
tp10255
a(g1
(g5
S'\x87\x99f?'
p10256
tp10257
Rp10258
g1
(g5
S'\xd2\x99f?'
p10259
tp10260
Rp10261
tp10262
a(g1
(g5
S'\xd2\x99f?'
p10263
tp10264
Rp10265
g1
(g5
S'\x14\x9af?'
p10266
tp10267
Rp10268
tp10269
a(g1
(g5
S'\x14\x9af?'
p10270
tp10271
Rp10272
g1
(g5
S'U\x9af?'
p10273
tp10274
Rp10275
tp10276
a(g1
(g5
S'U\x9af?'
p10277
tp10278
Rp10279
g1
(g5
S'\x9a\x9af?'
p10280
tp10281
Rp10282
tp10283
a(g1
(g5
S'\x9a\x9af?'
p10284
tp10285
Rp10286
g1
(g5
S'\xe4\x9af?'
p10287
tp10288
Rp10289
tp10290
a(g1
(g5
S'\xe4\x9af?'
p10291
tp10292
Rp10293
g1
(g5
S'.\x9bf?'
p10294
tp10295
Rp10296
tp10297
a(g1
(g5
S'.\x9bf?'
p10298
tp10299
Rp10300
g1
(g5
S'w\x9bf?'
p10301
tp10302
Rp10303
tp10304
a(g1
(g5
S'w\x9bf?'
p10305
tp10306
Rp10307
g1
(g5
S'\xc1\x9bf?'
p10308
tp10309
Rp10310
tp10311
a(g1
(g5
S'\xc1\x9bf?'
p10312
tp10313
Rp10314
g1
(g5
S'\x0e\x9cf?'
p10315
tp10316
Rp10317
tp10318
a(g1
(g5
S'\x0e\x9cf?'
p10319
tp10320
Rp10321
g1
(g5
S'\\\x9cf?'
p10322
tp10323
Rp10324
tp10325
a(g1
(g5
S'\\\x9cf?'
p10326
tp10327
Rp10328
g1
(g5
S'\xa2\x9cf?'
p10329
tp10330
Rp10331
tp10332
a(g1
(g5
S'\xa2\x9cf?'
p10333
tp10334
Rp10335
g1
(g5
S'\xeb\x9cf?'
p10336
tp10337
Rp10338
tp10339
a(g1
(g5
S'\xeb\x9cf?'
p10340
tp10341
Rp10342
g1
(g5
S'6\x9df?'
p10343
tp10344
Rp10345
tp10346
a(g1
(g5
S'6\x9df?'
p10347
tp10348
Rp10349
g1
(g5
S'\x80\x9df?'
p10350
tp10351
Rp10352
tp10353
a(g1
(g5
S'\x80\x9df?'
p10354
tp10355
Rp10356
g1
(g5
S'\xcd\x9df?'
p10357
tp10358
Rp10359
tp10360
a(g1
(g5
S'\xcd\x9df?'
p10361
tp10362
Rp10363
g1
(g5
S'\x16\x9ef?'
p10364
tp10365
Rp10366
tp10367
a(g1
(g5
S'\x16\x9ef?'
p10368
tp10369
Rp10370
g1
(g5
S'b\x9ef?'
p10371
tp10372
Rp10373
tp10374
a(g1
(g5
S'b\x9ef?'
p10375
tp10376
Rp10377
g1
(g5
S'\x98\x9ef?'
p10378
tp10379
Rp10380
tp10381
a(g1
(g5
S'\x98\x9ef?'
p10382
tp10383
Rp10384
g1
(g5
S'\xd9\x9ef?'
p10385
tp10386
Rp10387
tp10388
a(g1
(g5
S'\xd9\x9ef?'
p10389
tp10390
Rp10391
g1
(g5
S'#\x9ff?'
p10392
tp10393
Rp10394
tp10395
a(g1
(g5
S'#\x9ff?'
p10396
tp10397
Rp10398
g1
(g5
S'r\x9ff?'
p10399
tp10400
Rp10401
tp10402
a(g1
(g5
S'r\x9ff?'
p10403
tp10404
Rp10405
g1
(g5
S'\xbb\x9ff?'
p10406
tp10407
Rp10408
tp10409
a(g1
(g5
S'\xbb\x9ff?'
p10410
tp10411
Rp10412
g1
(g5
S'\x01\xa0f?'
p10413
tp10414
Rp10415
tp10416
a(g1
(g5
S'\x01\xa0f?'
p10417
tp10418
Rp10419
g1
(g5
S'H\xa0f?'
p10420
tp10421
Rp10422
tp10423
a(g1
(g5
S'H\xa0f?'
p10424
tp10425
Rp10426
g1
(g5
S'\x95\xa0f?'
p10427
tp10428
Rp10429
tp10430
a(g1
(g5
S'\x95\xa0f?'
p10431
tp10432
Rp10433
g1
(g5
S'\xe1\xa0f?'
p10434
tp10435
Rp10436
tp10437
a(g1
(g5
S'\xe1\xa0f?'
p10438
tp10439
Rp10440
g1
(g5
S'+\xa1f?'
p10441
tp10442
Rp10443
tp10444
a(g1
(g5
S'+\xa1f?'
p10445
tp10446
Rp10447
g1
(g5
S't\xa1f?'
p10448
tp10449
Rp10450
tp10451
a(g1
(g5
S't\xa1f?'
p10452
tp10453
Rp10454
g1
(g5
S'\xc1\xa1f?'
p10455
tp10456
Rp10457
tp10458
a(g1
(g5
S'\xc1\xa1f?'
p10459
tp10460
Rp10461
g1
(g5
S'\x05\xa2f?'
p10462
tp10463
Rp10464
tp10465
a(g1
(g5
S'\x05\xa2f?'
p10466
tp10467
Rp10468
g1
(g5
S'P\xa2f?'
p10469
tp10470
Rp10471
tp10472
a(g1
(g5
S'P\xa2f?'
p10473
tp10474
Rp10475
g1
(g5
S'\x9c\xa2f?'
p10476
tp10477
Rp10478
tp10479
a(g1
(g5
S'\x9c\xa2f?'
p10480
tp10481
Rp10482
g1
(g5
S'\xdb\xa2f?'
p10483
tp10484
Rp10485
tp10486
a(g1
(g5
S'\xdb\xa2f?'
p10487
tp10488
Rp10489
g1
(g5
S'#\xa3f?'
p10490
tp10491
Rp10492
tp10493
a(g1
(g5
S'#\xa3f?'
p10494
tp10495
Rp10496
g1
(g5
S'j\xa3f?'
p10497
tp10498
Rp10499
tp10500
a(g1
(g5
S'j\xa3f?'
p10501
tp10502
Rp10503
g1
(g5
S'\xb7\xa3f?'
p10504
tp10505
Rp10506
tp10507
a(g1
(g5
S'\xb7\xa3f?'
p10508
tp10509
Rp10510
g1
(g5
S'\xfb\xa3f?'
p10511
tp10512
Rp10513
tp10514
a(g1
(g5
S'\xfb\xa3f?'
p10515
tp10516
Rp10517
g1
(g5
S'E\xa4f?'
p10518
tp10519
Rp10520
tp10521
a(g1
(g5
S'E\xa4f?'
p10522
tp10523
Rp10524
g1
(g5
S'\x88\xa4f?'
p10525
tp10526
Rp10527
tp10528
a(g1
(g5
S'\x88\xa4f?'
p10529
tp10530
Rp10531
g1
(g5
S'\xcf\xa4f?'
p10532
tp10533
Rp10534
tp10535
a(g1
(g5
S'\xcf\xa4f?'
p10536
tp10537
Rp10538
g1
(g5
S'\x16\xa5f?'
p10539
tp10540
Rp10541
tp10542
a(g1
(g5
S'\x16\xa5f?'
p10543
tp10544
Rp10545
g1
(g5
S'`\xa5f?'
p10546
tp10547
Rp10548
tp10549
a(g1
(g5
S'`\xa5f?'
p10550
tp10551
Rp10552
g1
(g5
S'\xa2\xa5f?'
p10553
tp10554
Rp10555
tp10556
a(g1
(g5
S'\xa2\xa5f?'
p10557
tp10558
Rp10559
g1
(g5
S'\xe9\xa5f?'
p10560
tp10561
Rp10562
tp10563
a(g1
(g5
S'\xe9\xa5f?'
p10564
tp10565
Rp10566
g1
(g5
S'9\xa6f?'
p10567
tp10568
Rp10569
tp10570
a(g1
(g5
S'9\xa6f?'
p10571
tp10572
Rp10573
g1
(g5
S'z\xa6f?'
p10574
tp10575
Rp10576
tp10577
a(g1
(g5
S'z\xa6f?'
p10578
tp10579
Rp10580
g1
(g5
S'\xc0\xa6f?'
p10581
tp10582
Rp10583
tp10584
a(g1
(g5
S'\xc0\xa6f?'
p10585
tp10586
Rp10587
g1
(g5
S'\x0c\xa7f?'
p10588
tp10589
Rp10590
tp10591
a(g1
(g5
S'\x0c\xa7f?'
p10592
tp10593
Rp10594
g1
(g5
S'U\xa7f?'
p10595
tp10596
Rp10597
tp10598
a(g1
(g5
S'U\xa7f?'
p10599
tp10600
Rp10601
g1
(g5
S'\xa1\xa7f?'
p10602
tp10603
Rp10604
tp10605
a(g1
(g5
S'\xa1\xa7f?'
p10606
tp10607
Rp10608
g1
(g5
S'\xe8\xa7f?'
p10609
tp10610
Rp10611
tp10612
a(g1
(g5
S'\xe8\xa7f?'
p10613
tp10614
Rp10615
g1
(g5
S'2\xa8f?'
p10616
tp10617
Rp10618
tp10619
a(g1
(g5
S'2\xa8f?'
p10620
tp10621
Rp10622
g1
(g5
S'z\xa8f?'
p10623
tp10624
Rp10625
tp10626
a(g1
(g5
S'z\xa8f?'
p10627
tp10628
Rp10629
g1
(g5
S'\xb7\xa8f?'
p10630
tp10631
Rp10632
tp10633
a(g1
(g5
S'\xb7\xa8f?'
p10634
tp10635
Rp10636
g1
(g5
S'\x01\xa9f?'
p10637
tp10638
Rp10639
tp10640
a(g1
(g5
S'\x01\xa9f?'
p10641
tp10642
Rp10643
g1
(g5
S'C\xa9f?'
p10644
tp10645
Rp10646
tp10647
a(g1
(g5
S'C\xa9f?'
p10648
tp10649
Rp10650
g1
(g5
S'\x89\xa9f?'
p10651
tp10652
Rp10653
tp10654
a(g1
(g5
S'\x89\xa9f?'
p10655
tp10656
Rp10657
g1
(g5
S'\xcf\xa9f?'
p10658
tp10659
Rp10660
tp10661
a(g1
(g5
S'\xcf\xa9f?'
p10662
tp10663
Rp10664
g1
(g5
S'\x18\xaaf?'
p10665
tp10666
Rp10667
tp10668
a(g1
(g5
S'\x18\xaaf?'
p10669
tp10670
Rp10671
g1
(g5
S'_\xaaf?'
p10672
tp10673
Rp10674
tp10675
a(g1
(g5
S'_\xaaf?'
p10676
tp10677
Rp10678
g1
(g5
S'\xa6\xaaf?'
p10679
tp10680
Rp10681
tp10682
a(g1
(g5
S'\xa6\xaaf?'
p10683
tp10684
Rp10685
g1
(g5
S'\xe6\xaaf?'
p10686
tp10687
Rp10688
tp10689
a(g1
(g5
S'\xe6\xaaf?'
p10690
tp10691
Rp10692
g1
(g5
S'.\xabf?'
p10693
tp10694
Rp10695
tp10696
a(g1
(g5
S'.\xabf?'
p10697
tp10698
Rp10699
g1
(g5
S'q\xabf?'
p10700
tp10701
Rp10702
tp10703
a(g1
(g5
S'q\xabf?'
p10704
tp10705
Rp10706
g1
(g5
S'\xb9\xabf?'
p10707
tp10708
Rp10709
tp10710
a(g1
(g5
S'\xb9\xabf?'
p10711
tp10712
Rp10713
g1
(g5
S'\xfd\xabf?'
p10714
tp10715
Rp10716
tp10717
a(g1
(g5
S'\xfd\xabf?'
p10718
tp10719
Rp10720
g1
(g5
S'A\xacf?'
p10721
tp10722
Rp10723
tp10724
a(g1
(g5
S'A\xacf?'
p10725
tp10726
Rp10727
g1
(g5
S'\x85\xacf?'
p10728
tp10729
Rp10730
tp10731
a(g1
(g5
S'\x85\xacf?'
p10732
tp10733
Rp10734
g1
(g5
S'\xcd\xacf?'
p10735
tp10736
Rp10737
tp10738
a(g1
(g5
S'\xcd\xacf?'
p10739
tp10740
Rp10741
g1
(g5
S'\x13\xadf?'
p10742
tp10743
Rp10744
tp10745
a(g1
(g5
S'\x13\xadf?'
p10746
tp10747
Rp10748
g1
(g5
S'Q\xadf?'
p10749
tp10750
Rp10751
tp10752
a(g1
(g5
S'Q\xadf?'
p10753
tp10754
Rp10755
g1
(g5
S'\x96\xadf?'
p10756
tp10757
Rp10758
tp10759
a(g1
(g5
S'\x96\xadf?'
p10760
tp10761
Rp10762
g1
(g5
S'\xda\xadf?'
p10763
tp10764
Rp10765
tp10766
a(g1
(g5
S'\xda\xadf?'
p10767
tp10768
Rp10769
g1
(g5
S'\x1d\xaef?'
p10770
tp10771
Rp10772
tp10773
a(g1
(g5
S'\x1d\xaef?'
p10774
tp10775
Rp10776
g1
(g5
S'^\xaef?'
p10777
tp10778
Rp10779
tp10780
a(g1
(g5
S'^\xaef?'
p10781
tp10782
Rp10783
g1
(g5
S'\xa4\xaef?'
p10784
tp10785
Rp10786
tp10787
a(g1
(g5
S'\xa4\xaef?'
p10788
tp10789
Rp10790
g1
(g5
S'\xeb\xaef?'
p10791
tp10792
Rp10793
tp10794
a(g1
(g5
S'\xeb\xaef?'
p10795
tp10796
Rp10797
g1
(g5
S',\xaff?'
p10798
tp10799
Rp10800
tp10801
a(g1
(g5
S',\xaff?'
p10802
tp10803
Rp10804
g1
(g5
S't\xaff?'
p10805
tp10806
Rp10807
tp10808
a(g1
(g5
S't\xaff?'
p10809
tp10810
Rp10811
g1
(g5
S'\xb5\xaff?'
p10812
tp10813
Rp10814
tp10815
a(g1
(g5
S'\xb5\xaff?'
p10816
tp10817
Rp10818
g1
(g5
S'\xf6\xaff?'
p10819
tp10820
Rp10821
tp10822
a(g1
(g5
S'\xf6\xaff?'
p10823
tp10824
Rp10825
g1
(g5
S'>\xb0f?'
p10826
tp10827
Rp10828
tp10829
a(g1
(g5
S'>\xb0f?'
p10830
tp10831
Rp10832
g1
(g5
S'~\xb0f?'
p10833
tp10834
Rp10835
tp10836
a(g1
(g5
S'~\xb0f?'
p10837
tp10838
Rp10839
g1
(g5
S'\xc5\xb0f?'
p10840
tp10841
Rp10842
tp10843
a(g1
(g5
S'\xc5\xb0f?'
p10844
tp10845
Rp10846
g1
(g5
S'\x07\xb1f?'
p10847
tp10848
Rp10849
tp10850
a(g1
(g5
S'\x07\xb1f?'
p10851
tp10852
Rp10853
g1
(g5
S'I\xb1f?'
p10854
tp10855
Rp10856
tp10857
a(g1
(g5
S'I\xb1f?'
p10858
tp10859
Rp10860
g1
(g5
S'\x8f\xb1f?'
p10861
tp10862
Rp10863
tp10864
a(g1
(g5
S'\x8f\xb1f?'
p10865
tp10866
Rp10867
g1
(g5
S'\xd4\xb1f?'
p10868
tp10869
Rp10870
tp10871
a(g1
(g5
S'\xd4\xb1f?'
p10872
tp10873
Rp10874
g1
(g5
S'\x16\xb2f?'
p10875
tp10876
Rp10877
tp10878
a(g1
(g5
S'\x16\xb2f?'
p10879
tp10880
Rp10881
g1
(g5
S'Y\xb2f?'
p10882
tp10883
Rp10884
tp10885
a(g1
(g5
S'Y\xb2f?'
p10886
tp10887
Rp10888
g1
(g5
S'\x98\xb2f?'
p10889
tp10890
Rp10891
tp10892
a(g1
(g5
S'\x98\xb2f?'
p10893
tp10894
Rp10895
g1
(g5
S'\xd4\xb2f?'
p10896
tp10897
Rp10898
tp10899
a(g1
(g5
S'\xd4\xb2f?'
p10900
tp10901
Rp10902
g1
(g5
S'\x17\xb3f?'
p10903
tp10904
Rp10905
tp10906
a(g1
(g5
S'\x17\xb3f?'
p10907
tp10908
Rp10909
g1
(g5
S'W\xb3f?'
p10910
tp10911
Rp10912
tp10913
a(g1
(g5
S'W\xb3f?'
p10914
tp10915
Rp10916
g1
(g5
S'\x98\xb3f?'
p10917
tp10918
Rp10919
tp10920
a(g1
(g5
S'\x98\xb3f?'
p10921
tp10922
Rp10923
g1
(g5
S'\xdd\xb3f?'
p10924
tp10925
Rp10926
tp10927
a(g1
(g5
S'\xdd\xb3f?'
p10928
tp10929
Rp10930
g1
(g5
S'\x1e\xb4f?'
p10931
tp10932
Rp10933
tp10934
a(g1
(g5
S'\x1e\xb4f?'
p10935
tp10936
Rp10937
g1
(g5
S'b\xb4f?'
p10938
tp10939
Rp10940
tp10941
a(g1
(g5
S'b\xb4f?'
p10942
tp10943
Rp10944
g1
(g5
S'\xa6\xb4f?'
p10945
tp10946
Rp10947
tp10948
a(g1
(g5
S'\xa6\xb4f?'
p10949
tp10950
Rp10951
g1
(g5
S'\xe9\xb4f?'
p10952
tp10953
Rp10954
tp10955
a(g1
(g5
S'\xe9\xb4f?'
p10956
tp10957
Rp10958
g1
(g5
S'-\xb5f?'
p10959
tp10960
Rp10961
tp10962
a(g1
(g5
S'-\xb5f?'
p10963
tp10964
Rp10965
g1
(g5
S'o\xb5f?'
p10966
tp10967
Rp10968
tp10969
a(g1
(g5
S'o\xb5f?'
p10970
tp10971
Rp10972
g1
(g5
S'\xb4\xb5f?'
p10973
tp10974
Rp10975
tp10976
a(g1
(g5
S'\xb4\xb5f?'
p10977
tp10978
Rp10979
g1
(g5
S'\xf8\xb5f?'
p10980
tp10981
Rp10982
tp10983
a(g1
(g5
S'\xf8\xb5f?'
p10984
tp10985
Rp10986
g1
(g5
S'=\xb6f?'
p10987
tp10988
Rp10989
tp10990
a(g1
(g5
S'=\xb6f?'
p10991
tp10992
Rp10993
g1
(g5
S'|\xb6f?'
p10994
tp10995
Rp10996
tp10997
a(g1
(g5
S'|\xb6f?'
p10998
tp10999
Rp11000
g1
(g5
S'\xbb\xb6f?'
p11001
tp11002
Rp11003
tp11004
a(g1
(g5
S'\xbb\xb6f?'
p11005
tp11006
Rp11007
g1
(g5
S'\xfd\xb6f?'
p11008
tp11009
Rp11010
tp11011
a(g1
(g5
S'\xfd\xb6f?'
p11012
tp11013
Rp11014
g1
(g5
S'C\xb7f?'
p11015
tp11016
Rp11017
tp11018
a(g1
(g5
S'C\xb7f?'
p11019
tp11020
Rp11021
g1
(g5
S'\x87\xb7f?'
p11022
tp11023
Rp11024
tp11025
a(g1
(g5
S'\x87\xb7f?'
p11026
tp11027
Rp11028
g1
(g5
S'\xcc\xb7f?'
p11029
tp11030
Rp11031
tp11032
a(g1
(g5
S'\xcc\xb7f?'
p11033
tp11034
Rp11035
g1
(g5
S'\r\xb8f?'
p11036
tp11037
Rp11038
tp11039
a(g1
(g5
S'\r\xb8f?'
p11040
tp11041
Rp11042
g1
(g5
S'T\xb8f?'
p11043
tp11044
Rp11045
tp11046
a(g1
(g5
S'T\xb8f?'
p11047
tp11048
Rp11049
g1
(g5
S'\x98\xb8f?'
p11050
tp11051
Rp11052
tp11053
a(g1
(g5
S'\x98\xb8f?'
p11054
tp11055
Rp11056
g1
(g5
S'\xde\xb8f?'
p11057
tp11058
Rp11059
tp11060
a(g1
(g5
S'\xde\xb8f?'
p11061
tp11062
Rp11063
g1
(g5
S'\x1c\xb9f?'
p11064
tp11065
Rp11066
tp11067
a(g1
(g5
S'\x1c\xb9f?'
p11068
tp11069
Rp11070
g1
(g5
S'_\xb9f?'
p11071
tp11072
Rp11073
tp11074
a(g1
(g5
S'_\xb9f?'
p11075
tp11076
Rp11077
g1
(g5
S'\x99\xb9f?'
p11078
tp11079
Rp11080
tp11081
a(g1
(g5
S'\x99\xb9f?'
p11082
tp11083
Rp11084
g1
(g5
S'\xd5\xb9f?'
p11085
tp11086
Rp11087
tp11088
a(g1
(g5
S'\xd5\xb9f?'
p11089
tp11090
Rp11091
g1
(g5
S'\x15\xbaf?'
p11092
tp11093
Rp11094
tp11095
a(g1
(g5
S'\x15\xbaf?'
p11096
tp11097
Rp11098
g1
(g5
S'O\xbaf?'
p11099
tp11100
Rp11101
tp11102
a(g1
(g5
S'O\xbaf?'
p11103
tp11104
Rp11105
g1
(g5
S'\x8e\xbaf?'
p11106
tp11107
Rp11108
tp11109
a(g1
(g5
S'\x8e\xbaf?'
p11110
tp11111
Rp11112
g1
(g5
S'\xce\xbaf?'
p11113
tp11114
Rp11115
tp11116
a(g1
(g5
S'\xce\xbaf?'
p11117
tp11118
Rp11119
g1
(g5
S'\x12\xbbf?'
p11120
tp11121
Rp11122
tp11123
a(g1
(g5
S'\x12\xbbf?'
p11124
tp11125
Rp11126
g1
(g5
S'T\xbbf?'
p11127
tp11128
Rp11129
tp11130
a(g1
(g5
S'T\xbbf?'
p11131
tp11132
Rp11133
g1
(g5
S'\x93\xbbf?'
p11134
tp11135
Rp11136
tp11137
a(g1
(g5
S'\x93\xbbf?'
p11138
tp11139
Rp11140
g1
(g5
S'\xd1\xbbf?'
p11141
tp11142
Rp11143
tp11144
a(g1
(g5
S'\xd1\xbbf?'
p11145
tp11146
Rp11147
g1
(g5
S'\x19\xbcf?'
p11148
tp11149
Rp11150
tp11151
a(g1
(g5
S'\x19\xbcf?'
p11152
tp11153
Rp11154
g1
(g5
S'Z\xbcf?'
p11155
tp11156
Rp11157
tp11158
a(g1
(g5
S'Z\xbcf?'
p11159
tp11160
Rp11161
g1
(g5
S'\x98\xbcf?'
p11162
tp11163
Rp11164
tp11165
a(g1
(g5
S'\x98\xbcf?'
p11166
tp11167
Rp11168
g1
(g5
S'\xd2\xbcf?'
p11169
tp11170
Rp11171
tp11172
a(g1
(g5
S'\xd2\xbcf?'
p11173
tp11174
Rp11175
g1
(g5
S'\x15\xbdf?'
p11176
tp11177
Rp11178
tp11179
a(g1
(g5
S'\x15\xbdf?'
p11180
tp11181
Rp11182
g1
(g5
S'U\xbdf?'
p11183
tp11184
Rp11185
tp11186
a(g1
(g5
S'U\xbdf?'
p11187
tp11188
Rp11189
g1
(g5
S'\x96\xbdf?'
p11190
tp11191
Rp11192
tp11193
a(g1
(g5
S'\x96\xbdf?'
p11194
tp11195
Rp11196
g1
(g5
S'\xd1\xbdf?'
p11197
tp11198
Rp11199
tp11200
a(g1
(g5
S'\xd1\xbdf?'
p11201
tp11202
Rp11203
g1
(g5
S'\x13\xbef?'
p11204
tp11205
Rp11206
tp11207
a(g1
(g5
S'\x13\xbef?'
p11208
tp11209
Rp11210
g1
(g5
S'Q\xbef?'
p11211
tp11212
Rp11213
tp11214
a(g1
(g5
S'Q\xbef?'
p11215
tp11216
Rp11217
g1
(g5
S'\x90\xbef?'
p11218
tp11219
Rp11220
tp11221
a(g1
(g5
S'\x90\xbef?'
p11222
tp11223
Rp11224
g1
(g5
S'\xca\xbef?'
p11225
tp11226
Rp11227
tp11228
a(g1
(g5
S'\xca\xbef?'
p11229
tp11230
Rp11231
g1
(g5
S'\n\xbff?'
p11232
tp11233
Rp11234
tp11235
a(g1
(g5
S'\n\xbff?'
p11236
tp11237
Rp11238
g1
(g5
S'J\xbff?'
p11239
tp11240
Rp11241
tp11242
a(g1
(g5
S'J\xbff?'
p11243
tp11244
Rp11245
g1
(g5
S'\x88\xbff?'
p11246
tp11247
Rp11248
tp11249
a(g1
(g5
S'\x88\xbff?'
p11250
tp11251
Rp11252
g1
(g5
S'\xc4\xbff?'
p11253
tp11254
Rp11255
tp11256
a(g1
(g5
S'\xc4\xbff?'
p11257
tp11258
Rp11259
g1
(g5
S'\xff\xbff?'
p11260
tp11261
Rp11262
tp11263
a(g1
(g5
S'\xff\xbff?'
p11264
tp11265
Rp11266
g1
(g5
S'C\xc0f?'
p11267
tp11268
Rp11269
tp11270
a(g1
(g5
S'C\xc0f?'
p11271
tp11272
Rp11273
g1
(g5
S'\x82\xc0f?'
p11274
tp11275
Rp11276
tp11277
a(g1
(g5
S'\x82\xc0f?'
p11278
tp11279
Rp11280
g1
(g5
S'\xc6\xc0f?'
p11281
tp11282
Rp11283
tp11284
a(g1
(g5
S'\xc6\xc0f?'
p11285
tp11286
Rp11287
g1
(g5
S'\x03\xc1f?'
p11288
tp11289
Rp11290
tp11291
a(g1
(g5
S'\x03\xc1f?'
p11292
tp11293
Rp11294
g1
(g5
S'=\xc1f?'
p11295
tp11296
Rp11297
tp11298
a(g1
(g5
S'=\xc1f?'
p11299
tp11300
Rp11301
g1
(g5
S'z\xc1f?'
p11302
tp11303
Rp11304
tp11305
a(g1
(g5
S'z\xc1f?'
p11306
tp11307
Rp11308
g1
(g5
S'\xb9\xc1f?'
p11309
tp11310
Rp11311
tp11312
a(g1
(g5
S'\xb9\xc1f?'
p11313
tp11314
Rp11315
g1
(g5
S'\xf5\xc1f?'
p11316
tp11317
Rp11318
tp11319
a(g1
(g5
S'\xf5\xc1f?'
p11320
tp11321
Rp11322
g1
(g5
S'6\xc2f?'
p11323
tp11324
Rp11325
tp11326
a(g1
(g5
S'6\xc2f?'
p11327
tp11328
Rp11329
g1
(g5
S's\xc2f?'
p11330
tp11331
Rp11332
tp11333
a(g1
(g5
S's\xc2f?'
p11334
tp11335
Rp11336
g1
(g5
S'\xaf\xc2f?'
p11337
tp11338
Rp11339
tp11340
a(g1
(g5
S'\xaf\xc2f?'
p11341
tp11342
Rp11343
g1
(g5
S'\xef\xc2f?'
p11344
tp11345
Rp11346
tp11347
a(g1
(g5
S'\xef\xc2f?'
p11348
tp11349
Rp11350
g1
(g5
S'/\xc3f?'
p11351
tp11352
Rp11353
tp11354
a(g1
(g5
S'/\xc3f?'
p11355
tp11356
Rp11357
g1
(g5
S'j\xc3f?'
p11358
tp11359
Rp11360
tp11361
a(g1
(g5
S'j\xc3f?'
p11362
tp11363
Rp11364
g1
(g5
S'\xa8\xc3f?'
p11365
tp11366
Rp11367
tp11368
a(g1
(g5
S'\xa8\xc3f?'
p11369
tp11370
Rp11371
g1
(g5
S'\xe6\xc3f?'
p11372
tp11373
Rp11374
tp11375
a(g1
(g5
S'\xe6\xc3f?'
p11376
tp11377
Rp11378
g1
(g5
S'#\xc4f?'
p11379
tp11380
Rp11381
tp11382
a(g1
(g5
S'#\xc4f?'
p11383
tp11384
Rp11385
g1
(g5
S'^\xc4f?'
p11386
tp11387
Rp11388
tp11389
a(g1
(g5
S'^\xc4f?'
p11390
tp11391
Rp11392
g1
(g5
S'\x97\xc4f?'
p11393
tp11394
Rp11395
tp11396
a(g1
(g5
S'\x97\xc4f?'
p11397
tp11398
Rp11399
g1
(g5
S'\xdc\xc4f?'
p11400
tp11401
Rp11402
tp11403
a(g1
(g5
S'\xdc\xc4f?'
p11404
tp11405
Rp11406
g1
(g5
S'\x18\xc5f?'
p11407
tp11408
Rp11409
tp11410
a(g1
(g5
S'\x18\xc5f?'
p11411
tp11412
Rp11413
g1
(g5
S'Z\xc5f?'
p11414
tp11415
Rp11416
tp11417
a(g1
(g5
S'Z\xc5f?'
p11418
tp11419
Rp11420
g1
(g5
S'\x9b\xc5f?'
p11421
tp11422
Rp11423
tp11424
a(g1
(g5
S'\x9b\xc5f?'
p11425
tp11426
Rp11427
g1
(g5
S'\xd7\xc5f?'
p11428
tp11429
Rp11430
tp11431
a(g1
(g5
S'\xd7\xc5f?'
p11432
tp11433
Rp11434
g1
(g5
S'\x19\xc6f?'
p11435
tp11436
Rp11437
tp11438
a(g1
(g5
S'\x19\xc6f?'
p11439
tp11440
Rp11441
g1
(g5
S'U\xc6f?'
p11442
tp11443
Rp11444
tp11445
a(g1
(g5
S'U\xc6f?'
p11446
tp11447
Rp11448
g1
(g5
S'\x83\xc6f?'
p11449
tp11450
Rp11451
tp11452
a(g1
(g5
S'\x83\xc6f?'
p11453
tp11454
Rp11455
g1
(g5
S'\xc5\xc6f?'
p11456
tp11457
Rp11458
tp11459
a(g1
(g5
S'\xc5\xc6f?'
p11460
tp11461
Rp11462
g1
(g5
S'\x04\xc7f?'
p11463
tp11464
Rp11465
tp11466
a(g1
(g5
S'\x04\xc7f?'
p11467
tp11468
Rp11469
g1
(g5
S'A\xc7f?'
p11470
tp11471
Rp11472
tp11473
a(g1
(g5
S'A\xc7f?'
p11474
tp11475
Rp11476
g1
(g5
S'\x83\xc7f?'
p11477
tp11478
Rp11479
tp11480
a(g1
(g5
S'\x83\xc7f?'
p11481
tp11482
Rp11483
g1
(g5
S'\xbf\xc7f?'
p11484
tp11485
Rp11486
tp11487
a(g1
(g5
S'\xbf\xc7f?'
p11488
tp11489
Rp11490
g1
(g5
S'\xfd\xc7f?'
p11491
tp11492
Rp11493
tp11494
a(g1
(g5
S'\xfd\xc7f?'
p11495
tp11496
Rp11497
g1
(g5
S'9\xc8f?'
p11498
tp11499
Rp11500
tp11501
a(g1
(g5
S'9\xc8f?'
p11502
tp11503
Rp11504
g1
(g5
S's\xc8f?'
p11505
tp11506
Rp11507
tp11508
a(g1
(g5
S's\xc8f?'
p11509
tp11510
Rp11511
g1
(g5
S'\xae\xc8f?'
p11512
tp11513
Rp11514
tp11515
a(g1
(g5
S'\xae\xc8f?'
p11516
tp11517
Rp11518
g1
(g5
S'\xed\xc8f?'
p11519
tp11520
Rp11521
tp11522
a(g1
(g5
S'\xed\xc8f?'
p11523
tp11524
Rp11525
g1
(g5
S"'\xc9f?"
p11526
tp11527
Rp11528
tp11529
a(g1
(g5
S"'\xc9f?"
p11530
tp11531
Rp11532
g1
(g5
S'`\xc9f?'
p11533
tp11534
Rp11535
tp11536
a(g1
(g5
S'`\xc9f?'
p11537
tp11538
Rp11539
g1
(g5
S'\x9e\xc9f?'
p11540
tp11541
Rp11542
tp11543
a(g1
(g5
S'\x9e\xc9f?'
p11544
tp11545
Rp11546
g1
(g5
S'\xd9\xc9f?'
p11547
tp11548
Rp11549
tp11550
a(g1
(g5
S'\xd9\xc9f?'
p11551
tp11552
Rp11553
g1
(g5
S'\x12\xcaf?'
p11554
tp11555
Rp11556
tp11557
a(g1
(g5
S'\x12\xcaf?'
p11558
tp11559
Rp11560
g1
(g5
S'N\xcaf?'
p11561
tp11562
Rp11563
tp11564
a(g1
(g5
S'N\xcaf?'
p11565
tp11566
Rp11567
g1
(g5
S'\x88\xcaf?'
p11568
tp11569
Rp11570
tp11571
a(g1
(g5
S'\x88\xcaf?'
p11572
tp11573
Rp11574
g1
(g5
S'\xc0\xcaf?'
p11575
tp11576
Rp11577
tp11578
a(g1
(g5
S'\xc0\xcaf?'
p11579
tp11580
Rp11581
g1
(g5
S'\xff\xcaf?'
p11582
tp11583
Rp11584
tp11585
a(g1
(g5
S'\xff\xcaf?'
p11586
tp11587
Rp11588
g1
(g5
S'7\xcbf?'
p11589
tp11590
Rp11591
tp11592
a(g1
(g5
S'7\xcbf?'
p11593
tp11594
Rp11595
g1
(g5
S't\xcbf?'
p11596
tp11597
Rp11598
tp11599
a(g1
(g5
S't\xcbf?'
p11600
tp11601
Rp11602
g1
(g5
S'\xb4\xcbf?'
p11603
tp11604
Rp11605
tp11606
a(g1
(g5
S'\xb4\xcbf?'
p11607
tp11608
Rp11609
g1
(g5
S'\xed\xcbf?'
p11610
tp11611
Rp11612
tp11613
a(g1
(g5
S'\xed\xcbf?'
p11614
tp11615
Rp11616
g1
(g5
S'-\xccf?'
p11617
tp11618
Rp11619
tp11620
a(g1
(g5
S'-\xccf?'
p11621
tp11622
Rp11623
g1
(g5
S'g\xccf?'
p11624
tp11625
Rp11626
tp11627
a(g1
(g5
S'g\xccf?'
p11628
tp11629
Rp11630
g1
(g5
S'\x9d\xccf?'
p11631
tp11632
Rp11633
tp11634
a(g1
(g5
S'\x9d\xccf?'
p11635
tp11636
Rp11637
g1
(g5
S'\xd3\xccf?'
p11638
tp11639
Rp11640
tp11641
a(g1
(g5
S'\xd3\xccf?'
p11642
tp11643
Rp11644
g1
(g5
S'\r\xcdf?'
p11645
tp11646
Rp11647
tp11648
a(g1
(g5
S'\r\xcdf?'
p11649
tp11650
Rp11651
g1
(g5
S'F\xcdf?'
p11652
tp11653
Rp11654
tp11655
a(g1
(g5
S'F\xcdf?'
p11656
tp11657
Rp11658
g1
(g5
S'\x83\xcdf?'
p11659
tp11660
Rp11661
tp11662
a(g1
(g5
S'\x83\xcdf?'
p11663
tp11664
Rp11665
g1
(g5
S'\xbd\xcdf?'
p11666
tp11667
Rp11668
tp11669
a(g1
(g5
S'\xbd\xcdf?'
p11670
tp11671
Rp11672
g1
(g5
S'\xfd\xcdf?'
p11673
tp11674
Rp11675
tp11676
a(g1
(g5
S'\xfd\xcdf?'
p11677
tp11678
Rp11679
g1
(g5
S'0\xcef?'
p11680
tp11681
Rp11682
tp11683
a(g1
(g5
S'0\xcef?'
p11684
tp11685
Rp11686
g1
(g5
S'm\xcef?'
p11687
tp11688
Rp11689
tp11690
a(g1
(g5
S'm\xcef?'
p11691
tp11692
Rp11693
g1
(g5
S'\xa7\xcef?'
p11694
tp11695
Rp11696
tp11697
a(g1
(g5
S'\xa7\xcef?'
p11698
tp11699
Rp11700
g1
(g5
S'\xe2\xcef?'
p11701
tp11702
Rp11703
tp11704
a(g1
(g5
S'\xe2\xcef?'
p11705
tp11706
Rp11707
g1
(g5
S'\x1d\xcff?'
p11708
tp11709
Rp11710
tp11711
a(g1
(g5
S'\x1d\xcff?'
p11712
tp11713
Rp11714
g1
(g5
S'W\xcff?'
p11715
tp11716
Rp11717
tp11718
a(g1
(g5
S'W\xcff?'
p11719
tp11720
Rp11721
g1
(g5
S'\x8e\xcff?'
p11722
tp11723
Rp11724
tp11725
a(g1
(g5
S'\x8e\xcff?'
p11726
tp11727
Rp11728
g1
(g5
S'\xce\xcff?'
p11729
tp11730
Rp11731
tp11732
a(g1
(g5
S'\xce\xcff?'
p11733
tp11734
Rp11735
g1
(g5
S'\x02\xd0f?'
p11736
tp11737
Rp11738
tp11739
a(g1
(g5
S'\x02\xd0f?'
p11740
tp11741
Rp11742
g1
(g5
S'@\xd0f?'
p11743
tp11744
Rp11745
tp11746
a(g1
(g5
S'@\xd0f?'
p11747
tp11748
Rp11749
g1
(g5
S'|\xd0f?'
p11750
tp11751
Rp11752
tp11753
a(g1
(g5
S'|\xd0f?'
p11754
tp11755
Rp11756
g1
(g5
S'\xb3\xd0f?'
p11757
tp11758
Rp11759
tp11760
a(g1
(g5
S'\xb3\xd0f?'
p11761
tp11762
Rp11763
g1
(g5
S'\xef\xd0f?'
p11764
tp11765
Rp11766
tp11767
a(g1
(g5
S'\xef\xd0f?'
p11768
tp11769
Rp11770
g1
(g5
S'+\xd1f?'
p11771
tp11772
Rp11773
tp11774
a(g1
(g5
S'+\xd1f?'
p11775
tp11776
Rp11777
g1
(g5
S'h\xd1f?'
p11778
tp11779
Rp11780
tp11781
a(g1
(g5
S'h\xd1f?'
p11782
tp11783
Rp11784
g1
(g5
S'\xa4\xd1f?'
p11785
tp11786
Rp11787
tp11788
a(g1
(g5
S'\xa4\xd1f?'
p11789
tp11790
Rp11791
g1
(g5
S'\xde\xd1f?'
p11792
tp11793
Rp11794
tp11795
a(g1
(g5
S'\xde\xd1f?'
p11796
tp11797
Rp11798
g1
(g5
S'\x18\xd2f?'
p11799
tp11800
Rp11801
tp11802
a(g1
(g5
S'\x18\xd2f?'
p11803
tp11804
Rp11805
g1
(g5
S'M\xd2f?'
p11806
tp11807
Rp11808
tp11809
a(g1
(g5
S'M\xd2f?'
p11810
tp11811
Rp11812
g1
(g5
S'z\xd2f?'
p11813
tp11814
Rp11815
tp11816
a(g1
(g5
S'z\xd2f?'
p11817
tp11818
Rp11819
g1
(g5
S'\xb6\xd2f?'
p11820
tp11821
Rp11822
tp11823
a(g1
(g5
S'\xb6\xd2f?'
p11824
tp11825
Rp11826
g1
(g5
S'\xf3\xd2f?'
p11827
tp11828
Rp11829
tp11830
a(g1
(g5
S'\xf3\xd2f?'
p11831
tp11832
Rp11833
g1
(g5
S'.\xd3f?'
p11834
tp11835
Rp11836
tp11837
a(g1
(g5
S'.\xd3f?'
p11838
tp11839
Rp11840
g1
(g5
S'h\xd3f?'
p11841
tp11842
Rp11843
tp11844
a(g1
(g5
S'h\xd3f?'
p11845
tp11846
Rp11847
g1
(g5
S'\x99\xd3f?'
p11848
tp11849
Rp11850
tp11851
a(g1
(g5
S'\x99\xd3f?'
p11852
tp11853
Rp11854
g1
(g5
S'\xd6\xd3f?'
p11855
tp11856
Rp11857
tp11858
a(g1
(g5
S'\xd6\xd3f?'
p11859
tp11860
Rp11861
g1
(g5
S'\r\xd4f?'
p11862
tp11863
Rp11864
tp11865
a(g1
(g5
S'\r\xd4f?'
p11866
tp11867
Rp11868
g1
(g5
S'B\xd4f?'
p11869
tp11870
Rp11871
tp11872
a(g1
(g5
S'B\xd4f?'
p11873
tp11874
Rp11875
g1
(g5
S'\x7f\xd4f?'
p11876
tp11877
Rp11878
tp11879
a(g1
(g5
S'\x7f\xd4f?'
p11880
tp11881
Rp11882
g1
(g5
S'\xb1\xd4f?'
p11883
tp11884
Rp11885
tp11886
a(g1
(g5
S'\xb1\xd4f?'
p11887
tp11888
Rp11889
g1
(g5
S'\xed\xd4f?'
p11890
tp11891
Rp11892
tp11893
a(g1
(g5
S'\xed\xd4f?'
p11894
tp11895
Rp11896
g1
(g5
S'#\xd5f?'
p11897
tp11898
Rp11899
tp11900
a(g1
(g5
S'#\xd5f?'
p11901
tp11902
Rp11903
g1
(g5
S'X\xd5f?'
p11904
tp11905
Rp11906
tp11907
a(g1
(g5
S'X\xd5f?'
p11908
tp11909
Rp11910
g1
(g5
S'\x8f\xd5f?'
p11911
tp11912
Rp11913
tp11914
a(g1
(g5
S'\x8f\xd5f?'
p11915
tp11916
Rp11917
g1
(g5
S'\xca\xd5f?'
p11918
tp11919
Rp11920
tp11921
a(g1
(g5
S'\xca\xd5f?'
p11922
tp11923
Rp11924
g1
(g5
S'\x02\xd6f?'
p11925
tp11926
Rp11927
tp11928
a(g1
(g5
S'\x02\xd6f?'
p11929
tp11930
Rp11931
g1
(g5
S'=\xd6f?'
p11932
tp11933
Rp11934
tp11935
a(g1
(g5
S'=\xd6f?'
p11936
tp11937
Rp11938
g1
(g5
S's\xd6f?'
p11939
tp11940
Rp11941
tp11942
a(g1
(g5
S's\xd6f?'
p11943
tp11944
Rp11945
g1
(g5
S'\xa9\xd6f?'
p11946
tp11947
Rp11948
tp11949
a(g1
(g5
S'\xa9\xd6f?'
p11950
tp11951
Rp11952
g1
(g5
S'\xde\xd6f?'
p11953
tp11954
Rp11955
tp11956
a(g1
(g5
S'\xde\xd6f?'
p11957
tp11958
Rp11959
g1
(g5
S'\x15\xd7f?'
p11960
tp11961
Rp11962
tp11963
a(g1
(g5
S'\x15\xd7f?'
p11964
tp11965
Rp11966
g1
(g5
S'M\xd7f?'
p11967
tp11968
Rp11969
tp11970
a(g1
(g5
S'M\xd7f?'
p11971
tp11972
Rp11973
g1
(g5
S'\x87\xd7f?'
p11974
tp11975
Rp11976
tp11977
a(g1
(g5
S'\x87\xd7f?'
p11978
tp11979
Rp11980
g1
(g5
S'\xc2\xd7f?'
p11981
tp11982
Rp11983
tp11984
a(g1
(g5
S'\xc2\xd7f?'
p11985
tp11986
Rp11987
g1
(g5
S'\xf5\xd7f?'
p11988
tp11989
Rp11990
tp11991
a(g1
(g5
S'\xf5\xd7f?'
p11992
tp11993
Rp11994
g1
(g5
S'.\xd8f?'
p11995
tp11996
Rp11997
tp11998
a(g1
(g5
S'.\xd8f?'
p11999
tp12000
Rp12001
g1
(g5
S'i\xd8f?'
p12002
tp12003
Rp12004
tp12005
a(g1
(g5
S'i\xd8f?'
p12006
tp12007
Rp12008
g1
(g5
S'\xa2\xd8f?'
p12009
tp12010
Rp12011
tp12012
a(g1
(g5
S'\xa2\xd8f?'
p12013
tp12014
Rp12015
g1
(g5
S'\xde\xd8f?'
p12016
tp12017
Rp12018
tp12019
a(g1
(g5
S'\xde\xd8f?'
p12020
tp12021
Rp12022
g1
(g5
S'\x17\xd9f?'
p12023
tp12024
Rp12025
tp12026
a(g1
(g5
S'\x17\xd9f?'
p12027
tp12028
Rp12029
g1
(g5
S'R\xd9f?'
p12030
tp12031
Rp12032
tp12033
a(g1
(g5
S'R\xd9f?'
p12034
tp12035
Rp12036
g1
(g5
S'\x86\xd9f?'
p12037
tp12038
Rp12039
tp12040
a(g1
(g5
S'\x86\xd9f?'
p12041
tp12042
Rp12043
g1
(g5
S'\xbe\xd9f?'
p12044
tp12045
Rp12046
tp12047
a(g1
(g5
S'\xbe\xd9f?'
p12048
tp12049
Rp12050
g1
(g5
S'\xf2\xd9f?'
p12051
tp12052
Rp12053
tp12054
a(g1
(g5
S'\xf2\xd9f?'
p12055
tp12056
Rp12057
g1
(g5
S"'\xdaf?"
p12058
tp12059
Rp12060
tp12061
a(g1
(g5
S"'\xdaf?"
p12062
tp12063
Rp12064
g1
(g5
S'\\\xdaf?'
p12065
tp12066
Rp12067
tp12068
a(g1
(g5
S'\\\xdaf?'
p12069
tp12070
Rp12071
g1
(g5
S'\x94\xdaf?'
p12072
tp12073
Rp12074
tp12075
a(g1
(g5
S'\x94\xdaf?'
p12076
tp12077
Rp12078
g1
(g5
S'\xcf\xdaf?'
p12079
tp12080
Rp12081
tp12082
a(g1
(g5
S'\xcf\xdaf?'
p12083
tp12084
Rp12085
g1
(g5
S'\n\xdbf?'
p12086
tp12087
Rp12088
tp12089
a(g1
(g5
S'\n\xdbf?'
p12090
tp12091
Rp12092
g1
(g5
S'@\xdbf?'
p12093
tp12094
Rp12095
tp12096
a(g1
(g5
S'@\xdbf?'
p12097
tp12098
Rp12099
g1
(g5
S's\xdbf?'
p12100
tp12101
Rp12102
tp12103
a(g1
(g5
S's\xdbf?'
p12104
tp12105
Rp12106
g1
(g5
S'\xaa\xdbf?'
p12107
tp12108
Rp12109
tp12110
a(g1
(g5
S'\xaa\xdbf?'
p12111
tp12112
Rp12113
g1
(g5
S'\xe5\xdbf?'
p12114
tp12115
Rp12116
tp12117
a(g1
(g5
S'\xe5\xdbf?'
p12118
tp12119
Rp12120
g1
(g5
S'\x1a\xdcf?'
p12121
tp12122
Rp12123
tp12124
a(g1
(g5
S'\x1a\xdcf?'
p12125
tp12126
Rp12127
g1
(g5
S'R\xdcf?'
p12128
tp12129
Rp12130
tp12131
a(g1
(g5
S'R\xdcf?'
p12132
tp12133
Rp12134
g1
(g5
S'\x86\xdcf?'
p12135
tp12136
Rp12137
tp12138
a(g1
(g5
S'\x86\xdcf?'
p12139
tp12140
Rp12141
g1
(g5
S'\xc2\xdcf?'
p12142
tp12143
Rp12144
tp12145
a(g1
(g5
S'\xc2\xdcf?'
p12146
tp12147
Rp12148
g1
(g5
S'\xfa\xdcf?'
p12149
tp12150
Rp12151
tp12152
a(g1
(g5
S'\xfa\xdcf?'
p12153
tp12154
Rp12155
g1
(g5
S'3\xddf?'
p12156
tp12157
Rp12158
tp12159
a(g1
(g5
S'3\xddf?'
p12160
tp12161
Rp12162
g1
(g5
S'j\xddf?'
p12163
tp12164
Rp12165
tp12166
a(g1
(g5
S'j\xddf?'
p12167
tp12168
Rp12169
g1
(g5
S'\x9d\xddf?'
p12170
tp12171
Rp12172
tp12173
a(g1
(g5
S'\x9d\xddf?'
p12174
tp12175
Rp12176
g1
(g5
S'\xd1\xddf?'
p12177
tp12178
Rp12179
tp12180
a(g1
(g5
S'\xd1\xddf?'
p12181
tp12182
Rp12183
g1
(g5
S'\x05\xdef?'
p12184
tp12185
Rp12186
tp12187
a(g1
(g5
S'\x05\xdef?'
p12188
tp12189
Rp12190
g1
(g5
S'<\xdef?'
p12191
tp12192
Rp12193
tp12194
a(g1
(g5
S'<\xdef?'
p12195
tp12196
Rp12197
g1
(g5
S's\xdef?'
p12198
tp12199
Rp12200
tp12201
a(g1
(g5
S's\xdef?'
p12202
tp12203
Rp12204
g1
(g5
S'\xa6\xdef?'
p12205
tp12206
Rp12207
tp12208
a(g1
(g5
S'\xa6\xdef?'
p12209
tp12210
Rp12211
g1
(g5
S'\xde\xdef?'
p12212
tp12213
Rp12214
tp12215
a(g1
(g5
S'\xde\xdef?'
p12216
tp12217
Rp12218
g1
(g5
S'\x11\xdff?'
p12219
tp12220
Rp12221
tp12222
a(g1
(g5
S'\x11\xdff?'
p12223
tp12224
Rp12225
g1
(g5
S'G\xdff?'
p12226
tp12227
Rp12228
tp12229
a(g1
(g5
S'G\xdff?'
p12230
tp12231
Rp12232
g1
(g5
S'|\xdff?'
p12233
tp12234
Rp12235
tp12236
a(g1
(g5
S'|\xdff?'
p12237
tp12238
Rp12239
g1
(g5
S'\xb5\xdff?'
p12240
tp12241
Rp12242
tp12243
a(g1
(g5
S'\xb5\xdff?'
p12244
tp12245
Rp12246
g1
(g5
S'\xe8\xdff?'
p12247
tp12248
Rp12249
tp12250
a(g1
(g5
S'\xe8\xdff?'
p12251
tp12252
Rp12253
g1
(g5
S' \xe0f?'
p12254
tp12255
Rp12256
tp12257
a(g1
(g5
S' \xe0f?'
p12258
tp12259
Rp12260
g1
(g5
S'S\xe0f?'
p12261
tp12262
Rp12263
tp12264
a(g1
(g5
S'S\xe0f?'
p12265
tp12266
Rp12267
g1
(g5
S'\x87\xe0f?'
p12268
tp12269
Rp12270
tp12271
a(g1
(g5
S'\x87\xe0f?'
p12272
tp12273
Rp12274
g1
(g5
S'\xba\xe0f?'
p12275
tp12276
Rp12277
tp12278
a(g1
(g5
S'\xba\xe0f?'
p12279
tp12280
Rp12281
g1
(g5
S'\xe5\xe0f?'
p12282
tp12283
Rp12284
tp12285
a(g1
(g5
S'\xe5\xe0f?'
p12286
tp12287
Rp12288
g1
(g5
S'\x1a\xe1f?'
p12289
tp12290
Rp12291
tp12292
a(g1
(g5
S'\x1a\xe1f?'
p12293
tp12294
Rp12295
g1
(g5
S'M\xe1f?'
p12296
tp12297
Rp12298
tp12299
a(g1
(g5
S'M\xe1f?'
p12300
tp12301
Rp12302
g1
(g5
S'\x82\xe1f?'
p12303
tp12304
Rp12305
tp12306
a(g1
(g5
S'\x82\xe1f?'
p12307
tp12308
Rp12309
g1
(g5
S'\xb9\xe1f?'
p12310
tp12311
Rp12312
tp12313
a(g1
(g5
S'\xb9\xe1f?'
p12314
tp12315
Rp12316
g1
(g5
S'\xef\xe1f?'
p12317
tp12318
Rp12319
tp12320
a(g1
(g5
S'\xef\xe1f?'
p12321
tp12322
Rp12323
g1
(g5
S"'\xe2f?"
p12324
tp12325
Rp12326
tp12327
a(g1
(g5
S"'\xe2f?"
p12328
tp12329
Rp12330
g1
(g5
S'\\\xe2f?'
p12331
tp12332
Rp12333
tp12334
a(g1
(g5
S'\\\xe2f?'
p12335
tp12336
Rp12337
g1
(g5
S'\x95\xe2f?'
p12338
tp12339
Rp12340
tp12341
a(g1
(g5
S'\x95\xe2f?'
p12342
tp12343
Rp12344
g1
(g5
S'\xcb\xe2f?'
p12345
tp12346
Rp12347
tp12348
a(g1
(g5
S'\xcb\xe2f?'
p12349
tp12350
Rp12351
g1
(g5
S'\x00\xe3f?'
p12352
tp12353
Rp12354
tp12355
a(g1
(g5
S'\x00\xe3f?'
p12356
tp12357
Rp12358
g1
(g5
S'4\xe3f?'
p12359
tp12360
Rp12361
tp12362
a(g1
(g5
S'4\xe3f?'
p12363
tp12364
Rp12365
g1
(g5
S'h\xe3f?'
p12366
tp12367
Rp12368
tp12369
a(g1
(g5
S'h\xe3f?'
p12370
tp12371
Rp12372
g1
(g5
S'\x97\xe3f?'
p12373
tp12374
Rp12375
tp12376
a(g1
(g5
S'\x97\xe3f?'
p12377
tp12378
Rp12379
g1
(g5
S'\xcb\xe3f?'
p12380
tp12381
Rp12382
tp12383
a(g1
(g5
S'\xcb\xe3f?'
p12384
tp12385
Rp12386
g1
(g5
S'\x06\xe4f?'
p12387
tp12388
Rp12389
tp12390
a(g1
(g5
S'\x06\xe4f?'
p12391
tp12392
Rp12393
g1
(g5
S'8\xe4f?'
p12394
tp12395
Rp12396
tp12397
a(g1
(g5
S'8\xe4f?'
p12398
tp12399
Rp12400
g1
(g5
S'o\xe4f?'
p12401
tp12402
Rp12403
tp12404
a(g1
(g5
S'o\xe4f?'
p12405
tp12406
Rp12407
g1
(g5
S'\xa7\xe4f?'
p12408
tp12409
Rp12410
tp12411
a(g1
(g5
S'\xa7\xe4f?'
p12412
tp12413
Rp12414
g1
(g5
S'\xdb\xe4f?'
p12415
tp12416
Rp12417
tp12418
a(g1
(g5
S'\xdb\xe4f?'
p12419
tp12420
Rp12421
g1
(g5
S'\x10\xe5f?'
p12422
tp12423
Rp12424
tp12425
a(g1
(g5
S'\x10\xe5f?'
p12426
tp12427
Rp12428
g1
(g5
S'?\xe5f?'
p12429
tp12430
Rp12431
tp12432
a(g1
(g5
S'?\xe5f?'
p12433
tp12434
Rp12435
g1
(g5
S'n\xe5f?'
p12436
tp12437
Rp12438
tp12439
a(g1
(g5
S'n\xe5f?'
p12440
tp12441
Rp12442
g1
(g5
S'\xa5\xe5f?'
p12443
tp12444
Rp12445
tp12446
a(g1
(g5
S'\xa5\xe5f?'
p12447
tp12448
Rp12449
g1
(g5
S'\xd9\xe5f?'
p12450
tp12451
Rp12452
tp12453
a(g1
(g5
S'\xd9\xe5f?'
p12454
tp12455
Rp12456
g1
(g5
S'\r\xe6f?'
p12457
tp12458
Rp12459
tp12460
a(g1
(g5
S'\r\xe6f?'
p12461
tp12462
Rp12463
g1
(g5
S'=\xe6f?'
p12464
tp12465
Rp12466
tp12467
a(g1
(g5
S'=\xe6f?'
p12468
tp12469
Rp12470
g1
(g5
S'm\xe6f?'
p12471
tp12472
Rp12473
tp12474
a(g1
(g5
S'm\xe6f?'
p12475
tp12476
Rp12477
g1
(g5
S'\xa4\xe6f?'
p12478
tp12479
Rp12480
tp12481
a(g1
(g5
S'\xa4\xe6f?'
p12482
tp12483
Rp12484
g1
(g5
S'\xda\xe6f?'
p12485
tp12486
Rp12487
tp12488
a(g1
(g5
S'\xda\xe6f?'
p12489
tp12490
Rp12491
g1
(g5
S'\x0c\xe7f?'
p12492
tp12493
Rp12494
tp12495
a(g1
(g5
S'\x0c\xe7f?'
p12496
tp12497
Rp12498
g1
(g5
S'B\xe7f?'
p12499
tp12500
Rp12501
tp12502
a(g1
(g5
S'B\xe7f?'
p12503
tp12504
Rp12505
g1
(g5
S'u\xe7f?'
p12506
tp12507
Rp12508
tp12509
a(g1
(g5
S'u\xe7f?'
p12510
tp12511
Rp12512
g1
(g5
S'\xaa\xe7f?'
p12513
tp12514
Rp12515
tp12516
a(g1
(g5
S'\xaa\xe7f?'
p12517
tp12518
Rp12519
g1
(g5
S'\xdf\xe7f?'
p12520
tp12521
Rp12522
tp12523
a(g1
(g5
S'\xdf\xe7f?'
p12524
tp12525
Rp12526
g1
(g5
S'\x12\xe8f?'
p12527
tp12528
Rp12529
tp12530
a(g1
(g5
S'\x12\xe8f?'
p12531
tp12532
Rp12533
g1
(g5
S'H\xe8f?'
p12534
tp12535
Rp12536
tp12537
a(g1
(g5
S'H\xe8f?'
p12538
tp12539
Rp12540
g1
(g5
S'x\xe8f?'
p12541
tp12542
Rp12543
tp12544
a(g1
(g5
S'x\xe8f?'
p12545
tp12546
Rp12547
g1
(g5
S'\xad\xe8f?'
p12548
tp12549
Rp12550
tp12551
a(g1
(g5
S'\xad\xe8f?'
p12552
tp12553
Rp12554
g1
(g5
S'\xe5\xe8f?'
p12555
tp12556
Rp12557
tp12558
a(g1
(g5
S'\xe5\xe8f?'
p12559
tp12560
Rp12561
g1
(g5
S'\x19\xe9f?'
p12562
tp12563
Rp12564
tp12565
a(g1
(g5
S'\x19\xe9f?'
p12566
tp12567
Rp12568
g1
(g5
S'H\xe9f?'
p12569
tp12570
Rp12571
tp12572
a(g1
(g5
S'H\xe9f?'
p12573
tp12574
Rp12575
g1
(g5
S'x\xe9f?'
p12576
tp12577
Rp12578
tp12579
a(g1
(g5
S'x\xe9f?'
p12580
tp12581
Rp12582
g1
(g5
S'\xac\xe9f?'
p12583
tp12584
Rp12585
tp12586
a(g1
(g5
S'\xac\xe9f?'
p12587
tp12588
Rp12589
g1
(g5
S'\xdd\xe9f?'
p12590
tp12591
Rp12592
tp12593
a(g1
(g5
S'\xdd\xe9f?'
p12594
tp12595
Rp12596
g1
(g5
S'\x0f\xeaf?'
p12597
tp12598
Rp12599
tp12600
a(g1
(g5
S'\x0f\xeaf?'
p12601
tp12602
Rp12603
g1
(g5
S'F\xeaf?'
p12604
tp12605
Rp12606
tp12607
a(g1
(g5
S'F\xeaf?'
p12608
tp12609
Rp12610
g1
(g5
S'y\xeaf?'
p12611
tp12612
Rp12613
tp12614
a(g1
(g5
S'y\xeaf?'
p12615
tp12616
Rp12617
g1
(g5
S'\xaf\xeaf?'
p12618
tp12619
Rp12620
tp12621
a(g1
(g5
S'\xaf\xeaf?'
p12622
tp12623
Rp12624
g1
(g5
S'\xdf\xeaf?'
p12625
tp12626
Rp12627
tp12628
a(g1
(g5
S'\xdf\xeaf?'
p12629
tp12630
Rp12631
g1
(g5
S'\x12\xebf?'
p12632
tp12633
Rp12634
tp12635
a(g1
(g5
S'\x12\xebf?'
p12636
tp12637
Rp12638
g1
(g5
S'D\xebf?'
p12639
tp12640
Rp12641
tp12642
a(g1
(g5
S'D\xebf?'
p12643
tp12644
Rp12645
g1
(g5
S'w\xebf?'
p12646
tp12647
Rp12648
tp12649
a(g1
(g5
S'w\xebf?'
p12650
tp12651
Rp12652
g1
(g5
S'\xa7\xebf?'
p12653
tp12654
Rp12655
tp12656
a(g1
(g5
S'\xa7\xebf?'
p12657
tp12658
Rp12659
g1
(g5
S'\xd9\xebf?'
p12660
tp12661
Rp12662
tp12663
a(g1
(g5
S'\xd9\xebf?'
p12664
tp12665
Rp12666
g1
(g5
S'\r\xecf?'
p12667
tp12668
Rp12669
tp12670
a(g1
(g5
S'\r\xecf?'
p12671
tp12672
Rp12673
g1
(g5
S'B\xecf?'
p12674
tp12675
Rp12676
tp12677
a(g1
(g5
S'B\xecf?'
p12678
tp12679
Rp12680
g1
(g5
S'm\xecf?'
p12681
tp12682
Rp12683
tp12684
a(g1
(g5
S'm\xecf?'
p12685
tp12686
Rp12687
g1
(g5
S'\xa1\xecf?'
p12688
tp12689
Rp12690
tp12691
a(g1
(g5
S'\xa1\xecf?'
p12692
tp12693
Rp12694
g1
(g5
S'\xd4\xecf?'
p12695
tp12696
Rp12697
tp12698
a(g1
(g5
S'\xd4\xecf?'
p12699
tp12700
Rp12701
g1
(g5
S'\n\xedf?'
p12702
tp12703
Rp12704
tp12705
a(g1
(g5
S'\n\xedf?'
p12706
tp12707
Rp12708
g1
(g5
S'5\xedf?'
p12709
tp12710
Rp12711
tp12712
a(g1
(g5
S'5\xedf?'
p12713
tp12714
Rp12715
g1
(g5
S'i\xedf?'
p12716
tp12717
Rp12718
tp12719
a(g1
(g5
S'i\xedf?'
p12720
tp12721
Rp12722
g1
(g5
S'\xa0\xedf?'
p12723
tp12724
Rp12725
tp12726
a(g1
(g5
S'\xa0\xedf?'
p12727
tp12728
Rp12729
g1
(g5
S'\xcf\xedf?'
p12730
tp12731
Rp12732
tp12733
a(g1
(g5
S'\xcf\xedf?'
p12734
tp12735
Rp12736
g1
(g5
S'\xfc\xedf?'
p12737
tp12738
Rp12739
tp12740
a(g1
(g5
S'\xfc\xedf?'
p12741
tp12742
Rp12743
g1
(g5
S"'\xeef?"
p12744
tp12745
Rp12746
tp12747
a(g1
(g5
S"'\xeef?"
p12748
tp12749
Rp12750
g1
(g5
S'W\xeef?'
p12751
tp12752
Rp12753
tp12754
a(g1
(g5
S'W\xeef?'
p12755
tp12756
Rp12757
g1
(g5
S'\x8b\xeef?'
p12758
tp12759
Rp12760
tp12761
a(g1
(g5
S'\x8b\xeef?'
p12762
tp12763
Rp12764
g1
(g5
S'\xbd\xeef?'
p12765
tp12766
Rp12767
tp12768
a(g1
(g5
S'\xbd\xeef?'
p12769
tp12770
Rp12771
g1
(g5
S'\xe6\xeef?'
p12772
tp12773
Rp12774
tp12775
a(g1
(g5
S'\xe6\xeef?'
p12776
tp12777
Rp12778
g1
(g5
S'\x1c\xeff?'
p12779
tp12780
Rp12781
tp12782
a(g1
(g5
S'\x1c\xeff?'
p12783
tp12784
Rp12785
g1
(g5
S'K\xeff?'
p12786
tp12787
Rp12788
tp12789
a(g1
(g5
S'K\xeff?'
p12790
tp12791
Rp12792
g1
(g5
S'\x81\xeff?'
p12793
tp12794
Rp12795
tp12796
a(g1
(g5
S'\x81\xeff?'
p12797
tp12798
Rp12799
g1
(g5
S'\xb6\xeff?'
p12800
tp12801
Rp12802
tp12803
a(g1
(g5
S'\xb6\xeff?'
p12804
tp12805
Rp12806
g1
(g5
S'\xe4\xeff?'
p12807
tp12808
Rp12809
tp12810
a(g1
(g5
S'\xe4\xeff?'
p12811
tp12812
Rp12813
g1
(g5
S'\x11\xf0f?'
p12814
tp12815
Rp12816
tp12817
a(g1
(g5
S'\x11\xf0f?'
p12818
tp12819
Rp12820
g1
(g5
S'A\xf0f?'
p12821
tp12822
Rp12823
tp12824
a(g1
(g5
S'A\xf0f?'
p12825
tp12826
Rp12827
g1
(g5
S'r\xf0f?'
p12828
tp12829
Rp12830
tp12831
a(g1
(g5
S'r\xf0f?'
p12832
tp12833
Rp12834
g1
(g5
S'\x9f\xf0f?'
p12835
tp12836
Rp12837
tp12838
a(g1
(g5
S'\x9f\xf0f?'
p12839
tp12840
Rp12841
g1
(g5
S'\xd0\xf0f?'
p12842
tp12843
Rp12844
tp12845
a(g1
(g5
S'\xd0\xf0f?'
p12846
tp12847
Rp12848
g1
(g5
S'\x03\xf1f?'
p12849
tp12850
Rp12851
tp12852
a(g1
(g5
S'\x03\xf1f?'
p12853
tp12854
Rp12855
g1
(g5
S'6\xf1f?'
p12856
tp12857
Rp12858
tp12859
a(g1
(g5
S'6\xf1f?'
p12860
tp12861
Rp12862
g1
(g5
S'f\xf1f?'
p12863
tp12864
Rp12865
tp12866
a(g1
(g5
S'f\xf1f?'
p12867
tp12868
Rp12869
g1
(g5
S'\x92\xf1f?'
p12870
tp12871
Rp12872
tp12873
a(g1
(g5
S'\x92\xf1f?'
p12874
tp12875
Rp12876
g1
(g5
S'\xc7\xf1f?'
p12877
tp12878
Rp12879
tp12880
a(g1
(g5
S'\xc7\xf1f?'
p12881
tp12882
Rp12883
g1
(g5
S'\xf9\xf1f?'
p12884
tp12885
Rp12886
tp12887
a(g1
(g5
S'\xf9\xf1f?'
p12888
tp12889
Rp12890
g1
(g5
S'*\xf2f?'
p12891
tp12892
Rp12893
tp12894
a(g1
(g5
S'*\xf2f?'
p12895
tp12896
Rp12897
g1
(g5
S'[\xf2f?'
p12898
tp12899
Rp12900
tp12901
a(g1
(g5
S'[\xf2f?'
p12902
tp12903
Rp12904
g1
(g5
S'\x8b\xf2f?'
p12905
tp12906
Rp12907
tp12908
a(g1
(g5
S'\x8b\xf2f?'
p12909
tp12910
Rp12911
g1
(g5
S'\xbc\xf2f?'
p12912
tp12913
Rp12914
tp12915
a(g1
(g5
S'\xbc\xf2f?'
p12916
tp12917
Rp12918
g1
(g5
S'\xe7\xf2f?'
p12919
tp12920
Rp12921
tp12922
a(g1
(g5
S'\xe7\xf2f?'
p12923
tp12924
Rp12925
g1
(g5
S'\x19\xf3f?'
p12926
tp12927
Rp12928
tp12929
a(g1
(g5
S'\x19\xf3f?'
p12930
tp12931
Rp12932
g1
(g5
S'J\xf3f?'
p12933
tp12934
Rp12935
tp12936
a(g1
(g5
S'J\xf3f?'
p12937
tp12938
Rp12939
g1
(g5
S'z\xf3f?'
p12940
tp12941
Rp12942
tp12943
a(g1
(g5
S'z\xf3f?'
p12944
tp12945
Rp12946
g1
(g5
S'\xab\xf3f?'
p12947
tp12948
Rp12949
tp12950
a(g1
(g5
S'\xab\xf3f?'
p12951
tp12952
Rp12953
g1
(g5
S'\xde\xf3f?'
p12954
tp12955
Rp12956
tp12957
a(g1
(g5
S'\xde\xf3f?'
p12958
tp12959
Rp12960
g1
(g5
S'\x0f\xf4f?'
p12961
tp12962
Rp12963
tp12964
a(g1
(g5
S'\x0f\xf4f?'
p12965
tp12966
Rp12967
g1
(g5
S'?\xf4f?'
p12968
tp12969
Rp12970
tp12971
a(g1
(g5
S'?\xf4f?'
p12972
tp12973
Rp12974
g1
(g5
S'q\xf4f?'
p12975
tp12976
Rp12977
tp12978
a(g1
(g5
S'q\xf4f?'
p12979
tp12980
Rp12981
g1
(g5
S'\xa3\xf4f?'
p12982
tp12983
Rp12984
tp12985
a(g1
(g5
S'\xa3\xf4f?'
p12986
tp12987
Rp12988
g1
(g5
S'\xd5\xf4f?'
p12989
tp12990
Rp12991
tp12992
a(g1
(g5
S'\xd5\xf4f?'
p12993
tp12994
Rp12995
g1
(g5
S'\x00\xf5f?'
p12996
tp12997
Rp12998
tp12999
a(g1
(g5
S'\x00\xf5f?'
p13000
tp13001
Rp13002
g1
(g5
S'.\xf5f?'
p13003
tp13004
Rp13005
tp13006
a(g1
(g5
S'.\xf5f?'
p13007
tp13008
Rp13009
g1
(g5
S'^\xf5f?'
p13010
tp13011
Rp13012
tp13013
a(g1
(g5
S'^\xf5f?'
p13014
tp13015
Rp13016
g1
(g5
S'\x91\xf5f?'
p13017
tp13018
Rp13019
tp13020
a(g1
(g5
S'\x91\xf5f?'
p13021
tp13022
Rp13023
g1
(g5
S'\xc2\xf5f?'
p13024
tp13025
Rp13026
tp13027
a(g1
(g5
S'\xc2\xf5f?'
p13028
tp13029
Rp13030
g1
(g5
S'\xee\xf5f?'
p13031
tp13032
Rp13033
tp13034
a(g1
(g5
S'\xee\xf5f?'
p13035
tp13036
Rp13037
g1
(g5
S'!\xf6f?'
p13038
tp13039
Rp13040
tp13041
a(g1
(g5
S'!\xf6f?'
p13042
tp13043
Rp13044
g1
(g5
S'R\xf6f?'
p13045
tp13046
Rp13047
tp13048
a(g1
(g5
S'R\xf6f?'
p13049
tp13050
Rp13051
g1
(g5
S'{\xf6f?'
p13052
tp13053
Rp13054
tp13055
a(g1
(g5
S'{\xf6f?'
p13056
tp13057
Rp13058
g1
(g5
S'\xad\xf6f?'
p13059
tp13060
Rp13061
tp13062
a(g1
(g5
S'\xad\xf6f?'
p13063
tp13064
Rp13065
g1
(g5
S'\xdc\xf6f?'
p13066
tp13067
Rp13068
tp13069
a(g1
(g5
S'\xdc\xf6f?'
p13070
tp13071
Rp13072
g1
(g5
S'\x06\xf7f?'
p13073
tp13074
Rp13075
tp13076
a(g1
(g5
S'\x06\xf7f?'
p13077
tp13078
Rp13079
g1
(g5
S'2\xf7f?'
p13080
tp13081
Rp13082
tp13083
a(g1
(g5
S'2\xf7f?'
p13084
tp13085
Rp13086
g1
(g5
S'd\xf7f?'
p13087
tp13088
Rp13089
tp13090
a(g1
(g5
S'd\xf7f?'
p13091
tp13092
Rp13093
g1
(g5
S'\x98\xf7f?'
p13094
tp13095
Rp13096
tp13097
a(g1
(g5
S'\x98\xf7f?'
p13098
tp13099
Rp13100
g1
(g5
S'\xc0\xf7f?'
p13101
tp13102
Rp13103
tp13104
a(g1
(g5
S'\xc0\xf7f?'
p13105
tp13106
Rp13107
g1
(g5
S'\xf3\xf7f?'
p13108
tp13109
Rp13110
tp13111
a(g1
(g5
S'\xf3\xf7f?'
p13112
tp13113
Rp13114
g1
(g5
S'"\xf8f?'
p13115
tp13116
Rp13117
tp13118
a(g1
(g5
S'"\xf8f?'
p13119
tp13120
Rp13121
g1
(g5
S'Q\xf8f?'
p13122
tp13123
Rp13124
tp13125
a(g1
(g5
S'Q\xf8f?'
p13126
tp13127
Rp13128
g1
(g5
S'|\xf8f?'
p13129
tp13130
Rp13131
tp13132
a(g1
(g5
S'|\xf8f?'
p13133
tp13134
Rp13135
g1
(g5
S'\xaa\xf8f?'
p13136
tp13137
Rp13138
tp13139
a(g1
(g5
S'\xaa\xf8f?'
p13140
tp13141
Rp13142
g1
(g5
S'\xda\xf8f?'
p13143
tp13144
Rp13145
tp13146
a(g1
(g5
S'\xda\xf8f?'
p13147
tp13148
Rp13149
g1
(g5
S'\n\xf9f?'
p13150
tp13151
Rp13152
tp13153
a(g1
(g5
S'\n\xf9f?'
p13154
tp13155
Rp13156
g1
(g5
S';\xf9f?'
p13157
tp13158
Rp13159
tp13160
a(g1
(g5
S';\xf9f?'
p13161
tp13162
Rp13163
g1
(g5
S'p\xf9f?'
p13164
tp13165
Rp13166
tp13167
a(g1
(g5
S'p\xf9f?'
p13168
tp13169
Rp13170
g1
(g5
S'\xa0\xf9f?'
p13171
tp13172
Rp13173
tp13174
a(g1
(g5
S'\xa0\xf9f?'
p13175
tp13176
Rp13177
g1
(g5
S'\xce\xf9f?'
p13178
tp13179
Rp13180
tp13181
a(g1
(g5
S'\xce\xf9f?'
p13182
tp13183
Rp13184
g1
(g5
S'\xfb\xf9f?'
p13185
tp13186
Rp13187
tp13188
a(g1
(g5
S'\xfb\xf9f?'
p13189
tp13190
Rp13191
g1
(g5
S'+\xfaf?'
p13192
tp13193
Rp13194
tp13195
a(g1
(g5
S'+\xfaf?'
p13196
tp13197
Rp13198
g1
(g5
S'Z\xfaf?'
p13199
tp13200
Rp13201
tp13202
a(g1
(g5
S'Z\xfaf?'
p13203
tp13204
Rp13205
g1
(g5
S'\x8d\xfaf?'
p13206
tp13207
Rp13208
tp13209
a(g1
(g5
S'\x8d\xfaf?'
p13210
tp13211
Rp13212
g1
(g5
S'\xb9\xfaf?'
p13213
tp13214
Rp13215
tp13216
a(g1
(g5
S'\xb9\xfaf?'
p13217
tp13218
Rp13219
g1
(g5
S'\xe8\xfaf?'
p13220
tp13221
Rp13222
tp13223
a(g1
(g5
S'\xe8\xfaf?'
p13224
tp13225
Rp13226
g1
(g5
S'\x19\xfbf?'
p13227
tp13228
Rp13229
tp13230
a(g1
(g5
S'\x19\xfbf?'
p13231
tp13232
Rp13233
g1
(g5
S'C\xfbf?'
p13234
tp13235
Rp13236
tp13237
a(g1
(g5
S'C\xfbf?'
p13238
tp13239
Rp13240
g1
(g5
S'q\xfbf?'
p13241
tp13242
Rp13243
tp13244
a(g1
(g5
S'q\xfbf?'
p13245
tp13246
Rp13247
g1
(g5
S'\x9f\xfbf?'
p13248
tp13249
Rp13250
tp13251
a(g1
(g5
S'\x9f\xfbf?'
p13252
tp13253
Rp13254
g1
(g5
S'\xcd\xfbf?'
p13255
tp13256
Rp13257
tp13258
a(g1
(g5
S'\xcd\xfbf?'
p13259
tp13260
Rp13261
g1
(g5
S'\xfd\xfbf?'
p13262
tp13263
Rp13264
tp13265
a(g1
(g5
S'\xfd\xfbf?'
p13266
tp13267
Rp13268
g1
(g5
S',\xfcf?'
p13269
tp13270
Rp13271
tp13272
a(g1
(g5
S',\xfcf?'
p13273
tp13274
Rp13275
g1
(g5
S'[\xfcf?'
p13276
tp13277
Rp13278
tp13279
a(g1
(g5
S'[\xfcf?'
p13280
tp13281
Rp13282
g1
(g5
S'\x86\xfcf?'
p13283
tp13284
Rp13285
tp13286
a(g1
(g5
S'\x86\xfcf?'
p13287
tp13288
Rp13289
g1
(g5
S'\xb3\xfcf?'
p13290
tp13291
Rp13292
tp13293
a(g1
(g5
S'\xb3\xfcf?'
p13294
tp13295
Rp13296
g1
(g5
S'\xe4\xfcf?'
p13297
tp13298
Rp13299
tp13300
a(g1
(g5
S'\xe4\xfcf?'
p13301
tp13302
Rp13303
g1
(g5
S'\x0f\xfdf?'
p13304
tp13305
Rp13306
tp13307
a(g1
(g5
S'\x0f\xfdf?'
p13308
tp13309
Rp13310
g1
(g5
S'A\xfdf?'
p13311
tp13312
Rp13313
tp13314
a(g1
(g5
S'A\xfdf?'
p13315
tp13316
Rp13317
g1
(g5
S'm\xfdf?'
p13318
tp13319
Rp13320
tp13321
a(g1
(g5
S'm\xfdf?'
p13322
tp13323
Rp13324
g1
(g5
S'\x97\xfdf?'
p13325
tp13326
Rp13327
tp13328
a(g1
(g5
S'\x97\xfdf?'
p13329
tp13330
Rp13331
g1
(g5
S'\xc4\xfdf?'
p13332
tp13333
Rp13334
tp13335
a(g1
(g5
S'\xc4\xfdf?'
p13336
tp13337
Rp13338
g1
(g5
S'\xee\xfdf?'
p13339
tp13340
Rp13341
tp13342
a(g1
(g5
S'\xee\xfdf?'
p13343
tp13344
Rp13345
g1
(g5
S'\x19\xfef?'
p13346
tp13347
Rp13348
tp13349
a(g1
(g5
S'\x19\xfef?'
p13350
tp13351
Rp13352
g1
(g5
S'I\xfef?'
p13353
tp13354
Rp13355
tp13356
a(g1
(g5
S'I\xfef?'
p13357
tp13358
Rp13359
g1
(g5
S'x\xfef?'
p13360
tp13361
Rp13362
tp13363
a(g1
(g5
S'x\xfef?'
p13364
tp13365
Rp13366
g1
(g5
S'\xa2\xfef?'
p13367
tp13368
Rp13369
tp13370
a(g1
(g5
S'\xa2\xfef?'
p13371
tp13372
Rp13373
g1
(g5
S'\xcd\xfef?'
p13374
tp13375
Rp13376
tp13377
a(g1
(g5
S'\xcd\xfef?'
p13378
tp13379
Rp13380
g1
(g5
S'\xfe\xfef?'
p13381
tp13382
Rp13383
tp13384
a(g1
(g5
S'\xfe\xfef?'
p13385
tp13386
Rp13387
g1
(g5
S'+\xfff?'
p13388
tp13389
Rp13390
tp13391
a(g1
(g5
S'+\xfff?'
p13392
tp13393
Rp13394
g1
(g5
S'Z\xfff?'
p13395
tp13396
Rp13397
tp13398
a(g1
(g5
S'Z\xfff?'
p13399
tp13400
Rp13401
g1
(g5
S'\x88\xfff?'
p13402
tp13403
Rp13404
tp13405
a(g1
(g5
S'\x88\xfff?'
p13406
tp13407
Rp13408
g1
(g5
S'\xb7\xfff?'
p13409
tp13410
Rp13411
tp13412
a(g1
(g5
S'\xb7\xfff?'
p13413
tp13414
Rp13415
g1
(g5
S'\xe3\xfff?'
p13416
tp13417
Rp13418
tp13419
a(g1
(g5
S'\xe3\xfff?'
p13420
tp13421
Rp13422
g1
(g5
S'\x11\x00g?'
p13423
tp13424
Rp13425
tp13426
a(g1
(g5
S'\x11\x00g?'
p13427
tp13428
Rp13429
g1
(g5
S'9\x00g?'
p13430
tp13431
Rp13432
tp13433
a(g1
(g5
S'9\x00g?'
p13434
tp13435
Rp13436
g1
(g5
S'h\x00g?'
p13437
tp13438
Rp13439
tp13440
a(g1
(g5
S'h\x00g?'
p13441
tp13442
Rp13443
g1
(g5
S'\x96\x00g?'
p13444
tp13445
Rp13446
tp13447
a(g1
(g5
S'\x96\x00g?'
p13448
tp13449
Rp13450
g1
(g5
S'\xc0\x00g?'
p13451
tp13452
Rp13453
tp13454
a(g1
(g5
S'\xc0\x00g?'
p13455
tp13456
Rp13457
g1
(g5
S'\xf1\x00g?'
p13458
tp13459
Rp13460
tp13461
a(g1
(g5
S'\xf1\x00g?'
p13462
tp13463
Rp13464
g1
(g5
S'\x1a\x01g?'
p13465
tp13466
Rp13467
tp13468
a(g1
(g5
S'\x1a\x01g?'
p13469
tp13470
Rp13471
g1
(g5
S'K\x01g?'
p13472
tp13473
Rp13474
tp13475
a(g1
(g5
S'K\x01g?'
p13476
tp13477
Rp13478
g1
(g5
S's\x01g?'
p13479
tp13480
Rp13481
tp13482
a(g1
(g5
S's\x01g?'
p13483
tp13484
Rp13485
g1
(g5
S'\x9e\x01g?'
p13486
tp13487
Rp13488
tp13489
a(g1
(g5
S'\x9e\x01g?'
p13490
tp13491
Rp13492
g1
(g5
S'\xce\x01g?'
p13493
tp13494
Rp13495
tp13496
a(g1
(g5
S'\xce\x01g?'
p13497
tp13498
Rp13499
g1
(g5
S'\xf8\x01g?'
p13500
tp13501
Rp13502
tp13503
a(g1
(g5
S'\xf8\x01g?'
p13504
tp13505
Rp13506
g1
(g5
S'#\x02g?'
p13507
tp13508
Rp13509
tp13510
a(g1
(g5
S'#\x02g?'
p13511
tp13512
Rp13513
g1
(g5
S'L\x02g?'
p13514
tp13515
Rp13516
tp13517
a(g1
(g5
S'L\x02g?'
p13518
tp13519
Rp13520
g1
(g5
S'x\x02g?'
p13521
tp13522
Rp13523
tp13524
a(g1
(g5
S'x\x02g?'
p13525
tp13526
Rp13527
g1
(g5
S'\xa5\x02g?'
p13528
tp13529
Rp13530
tp13531
a(g1
(g5
S'\xa5\x02g?'
p13532
tp13533
Rp13534
g1
(g5
S'\xd5\x02g?'
p13535
tp13536
Rp13537
tp13538
a(g1
(g5
S'\xd5\x02g?'
p13539
tp13540
Rp13541
g1
(g5
S'\xf6\x02g?'
p13542
tp13543
Rp13544
tp13545
a(g1
(g5
S'\xf6\x02g?'
p13546
tp13547
Rp13548
g1
(g5
S'!\x03g?'
p13549
tp13550
Rp13551
tp13552
a(g1
(g5
S'!\x03g?'
p13553
tp13554
Rp13555
g1
(g5
S'P\x03g?'
p13556
tp13557
Rp13558
tp13559
a(g1
(g5
S'P\x03g?'
p13560
tp13561
Rp13562
g1
(g5
S'}\x03g?'
p13563
tp13564
Rp13565
tp13566
a(g1
(g5
S'}\x03g?'
p13567
tp13568
Rp13569
g1
(g5
S'\xa9\x03g?'
p13570
tp13571
Rp13572
tp13573
a(g1
(g5
S'\xa9\x03g?'
p13574
tp13575
Rp13576
g1
(g5
S'\xda\x03g?'
p13577
tp13578
Rp13579
tp13580
a(g1
(g5
S'\xda\x03g?'
p13581
tp13582
Rp13583
g1
(g5
S'\x08\x04g?'
p13584
tp13585
Rp13586
tp13587
a(g1
(g5
S'\x08\x04g?'
p13588
tp13589
Rp13590
g1
(g5
S'2\x04g?'
p13591
tp13592
Rp13593
tp13594
a(g1
(g5
S'2\x04g?'
p13595
tp13596
Rp13597
g1
(g5
S']\x04g?'
p13598
tp13599
Rp13600
tp13601
a(g1
(g5
S']\x04g?'
p13602
tp13603
Rp13604
g1
(g5
S'\x85\x04g?'
p13605
tp13606
Rp13607
tp13608
a(g1
(g5
S'\x85\x04g?'
p13609
tp13610
Rp13611
g1
(g5
S'\xae\x04g?'
p13612
tp13613
Rp13614
tp13615
a(g1
(g5
S'\xae\x04g?'
p13616
tp13617
Rp13618
g1
(g5
S'\xdb\x04g?'
p13619
tp13620
Rp13621
tp13622
a(g1
(g5
S'\xdb\x04g?'
p13623
tp13624
Rp13625
g1
(g5
S'\x08\x05g?'
p13626
tp13627
Rp13628
tp13629
a(g1
(g5
S'\x08\x05g?'
p13630
tp13631
Rp13632
g1
(g5
S'6\x05g?'
p13633
tp13634
Rp13635
tp13636
a(g1
(g5
S'6\x05g?'
p13637
tp13638
Rp13639
g1
(g5
S'[\x05g?'
p13640
tp13641
Rp13642
tp13643
a(g1
(g5
S'[\x05g?'
p13644
tp13645
Rp13646
g1
(g5
S'\x8c\x05g?'
p13647
tp13648
Rp13649
tp13650
a(g1
(g5
S'\x8c\x05g?'
p13651
tp13652
Rp13653
g1
(g5
S'\xb9\x05g?'
p13654
tp13655
Rp13656
tp13657
a(g1
(g5
S'\xb9\x05g?'
p13658
tp13659
Rp13660
g1
(g5
S'\xdf\x05g?'
p13661
tp13662
Rp13663
tp13664
a(g1
(g5
S'\xdf\x05g?'
p13665
tp13666
Rp13667
g1
(g5
S'\n\x06g?'
p13668
tp13669
Rp13670
tp13671
a(g1
(g5
S'\n\x06g?'
p13672
tp13673
Rp13674
g1
(g5
S'8\x06g?'
p13675
tp13676
Rp13677
tp13678
a(g1
(g5
S'8\x06g?'
p13679
tp13680
Rp13681
g1
(g5
S'c\x06g?'
p13682
tp13683
Rp13684
tp13685
a(g1
(g5
S'c\x06g?'
p13686
tp13687
Rp13688
g1
(g5
S'\x8d\x06g?'
p13689
tp13690
Rp13691
tp13692
a(g1
(g5
S'\x8d\x06g?'
p13693
tp13694
Rp13695
g1
(g5
S'\xb5\x06g?'
p13696
tp13697
Rp13698
tp13699
a(g1
(g5
S'\xb5\x06g?'
p13700
tp13701
Rp13702
g1
(g5
S'\xe3\x06g?'
p13703
tp13704
Rp13705
tp13706
a(g1
(g5
S'\xe3\x06g?'
p13707
tp13708
Rp13709
g1
(g5
S'\x0e\x07g?'
p13710
tp13711
Rp13712
tp13713
a(g1
(g5
S'\x0e\x07g?'
p13714
tp13715
Rp13716
g1
(g5
S'4\x07g?'
p13717
tp13718
Rp13719
tp13720
a(g1
(g5
S'4\x07g?'
p13721
tp13722
Rp13723
g1
(g5
S'`\x07g?'
p13724
tp13725
Rp13726
tp13727
a(g1
(g5
S'`\x07g?'
p13728
tp13729
Rp13730
g1
(g5
S'\x8c\x07g?'
p13731
tp13732
Rp13733
tp13734
a(g1
(g5
S'\x8c\x07g?'
p13735
tp13736
Rp13737
g1
(g5
S'\xb7\x07g?'
p13738
tp13739
Rp13740
tp13741
a(g1
(g5
S'\xb7\x07g?'
p13742
tp13743
Rp13744
g1
(g5
S'\xe2\x07g?'
p13745
tp13746
Rp13747
tp13748
a(g1
(g5
S'\xe2\x07g?'
p13749
tp13750
Rp13751
g1
(g5
S'\r\x08g?'
p13752
tp13753
Rp13754
tp13755
a(g1
(g5
S'\r\x08g?'
p13756
tp13757
Rp13758
g1
(g5
S'8\x08g?'
p13759
tp13760
Rp13761
tp13762
a(g1
(g5
S'8\x08g?'
p13763
tp13764
Rp13765
g1
(g5
S'g\x08g?'
p13766
tp13767
Rp13768
tp13769
a(g1
(g5
S'g\x08g?'
p13770
tp13771
Rp13772
g1
(g5
S'\x92\x08g?'
p13773
tp13774
Rp13775
tp13776
a(g1
(g5
S'\x92\x08g?'
p13777
tp13778
Rp13779
g1
(g5
S'\xbc\x08g?'
p13780
tp13781
Rp13782
tp13783
a(g1
(g5
S'\xbc\x08g?'
p13784
tp13785
Rp13786
g1
(g5
S'\xe7\x08g?'
p13787
tp13788
Rp13789
tp13790
a(g1
(g5
S'\xe7\x08g?'
p13791
tp13792
Rp13793
g1
(g5
S'\x17\tg?'
p13794
tp13795
Rp13796
tp13797
a(g1
(g5
S'\x17\tg?'
p13798
tp13799
Rp13800
g1
(g5
S'?\tg?'
p13801
tp13802
Rp13803
tp13804
a(g1
(g5
S'?\tg?'
p13805
tp13806
Rp13807
g1
(g5
S'f\tg?'
p13808
tp13809
Rp13810
tp13811
a(g1
(g5
S'f\tg?'
p13812
tp13813
Rp13814
g1
(g5
S'\x8f\tg?'
p13815
tp13816
Rp13817
tp13818
a(g1
(g5
S'\x8f\tg?'
p13819
tp13820
Rp13821
g1
(g5
S'\xb8\tg?'
p13822
tp13823
Rp13824
tp13825
a(g1
(g5
S'\xb8\tg?'
p13826
tp13827
Rp13828
g1
(g5
S'\xdd\tg?'
p13829
tp13830
Rp13831
tp13832
a(g1
(g5
S'\xdd\tg?'
p13833
tp13834
Rp13835
g1
(g5
S'\x04\ng?'
p13836
tp13837
Rp13838
tp13839
a(g1
(g5
S'\x04\ng?'
p13840
tp13841
Rp13842
g1
(g5
S'3\ng?'
p13843
tp13844
Rp13845
tp13846
a(g1
(g5
S'3\ng?'
p13847
tp13848
Rp13849
g1
(g5
S'a\ng?'
p13850
tp13851
Rp13852
tp13853
a(g1
(g5
S'a\ng?'
p13854
tp13855
Rp13856
g1
(g5
S'\x8b\ng?'
p13857
tp13858
Rp13859
tp13860
a(g1
(g5
S'\x8b\ng?'
p13861
tp13862
Rp13863
g1
(g5
S'\xb4\ng?'
p13864
tp13865
Rp13866
tp13867
a(g1
(g5
S'\xb4\ng?'
p13868
tp13869
Rp13870
g1
(g5
S'\xdf\ng?'
p13871
tp13872
Rp13873
tp13874
a(g1
(g5
S'\xdf\ng?'
p13875
tp13876
Rp13877
g1
(g5
S'\r\x0bg?'
p13878
tp13879
Rp13880
tp13881
a(g1
(g5
S'\r\x0bg?'
p13882
tp13883
Rp13884
g1
(g5
S'6\x0bg?'
p13885
tp13886
Rp13887
tp13888
a(g1
(g5
S'6\x0bg?'
p13889
tp13890
Rp13891
g1
(g5
S'^\x0bg?'
p13892
tp13893
Rp13894
tp13895
a(g1
(g5
S'^\x0bg?'
p13896
tp13897
Rp13898
g1
(g5
S'\x8a\x0bg?'
p13899
tp13900
Rp13901
tp13902
a(g1
(g5
S'\x8a\x0bg?'
p13903
tp13904
Rp13905
g1
(g5
S'\xb7\x0bg?'
p13906
tp13907
Rp13908
tp13909
a(g1
(g5
S'\xb7\x0bg?'
p13910
tp13911
Rp13912
g1
(g5
S'\xe0\x0bg?'
p13913
tp13914
Rp13915
tp13916
a(g1
(g5
S'\xe0\x0bg?'
p13917
tp13918
Rp13919
g1
(g5
S'\x04\x0cg?'
p13920
tp13921
Rp13922
tp13923
a(g1
(g5
S'\x04\x0cg?'
p13924
tp13925
Rp13926
g1
(g5
S'.\x0cg?'
p13927
tp13928
Rp13929
tp13930
a(g1
(g5
S'.\x0cg?'
p13931
tp13932
Rp13933
g1
(g5
S'Y\x0cg?'
p13934
tp13935
Rp13936
tp13937
a(g1
(g5
S'Y\x0cg?'
p13938
tp13939
Rp13940
g1
(g5
S'\x81\x0cg?'
p13941
tp13942
Rp13943
tp13944
a(g1
(g5
S'\x81\x0cg?'
p13945
tp13946
Rp13947
g1
(g5
S'\xac\x0cg?'
p13948
tp13949
Rp13950
tp13951
a(g1
(g5
S'\xac\x0cg?'
p13952
tp13953
Rp13954
g1
(g5
S'\xd4\x0cg?'
p13955
tp13956
Rp13957
tp13958
a(g1
(g5
S'\xd4\x0cg?'
p13959
tp13960
Rp13961
g1
(g5
S'\xfa\x0cg?'
p13962
tp13963
Rp13964
tp13965
a(g1
(g5
S'\xfa\x0cg?'
p13966
tp13967
Rp13968
g1
(g5
S'(\rg?'
p13969
tp13970
Rp13971
tp13972
a(g1
(g5
S'(\rg?'
p13973
tp13974
Rp13975
g1
(g5
S'Q\rg?'
p13976
tp13977
Rp13978
tp13979
a(g1
(g5
S'Q\rg?'
p13980
tp13981
Rp13982
g1
(g5
S'|\rg?'
p13983
tp13984
Rp13985
tp13986
a(g1
(g5
S'|\rg?'
p13987
tp13988
Rp13989
g1
(g5
S'\xa5\rg?'
p13990
tp13991
Rp13992
tp13993
a(g1
(g5
S'\xa5\rg?'
p13994
tp13995
Rp13996
g1
(g5
S'\xc8\rg?'
p13997
tp13998
Rp13999
tp14000
a(g1
(g5
S'\xc8\rg?'
p14001
tp14002
Rp14003
g1
(g5
S'\xf1\rg?'
p14004
tp14005
Rp14006
tp14007
a.